Component: ARM Compiler 5.06 update 6 (build 750) Tool: armlink [4d35ed]

==============================================================================

Section Cross References

    led.o(i.led_ctrl) refers to led.o(i.led_reverse) for led_reverse
    led.o(i.led_ctrl) refers to led.o(i.led_on) for led_on
    led.o(i.led_ctrl) refers to led.o(i.led_off) for led_off
    led.o(i.led_ctrl) refers to led.o(.data) for ledCtrlTimer
    led.o(i.led_init) refers to hw_led.o(i.hw_led_initialize) for hw_led_initialize
    led.o(i.led_init) refers to led.o(i.led_on) for led_on
    led.o(i.led_test_x) refers to led.o(i.led_off) for led_off
    led.o(i.led_test_x) refers to led.o(i.led_on) for led_on
    led.o(i.led_test_x) refers to led.o(.data) for ledCtrlTimer
    ticks.o(i.delay_ms) refers to ticks.o(.data) for delayTimer
    ticks.o(i.micros16) refers to stm32f10x_tim.o(i.TIM_GetCounter) for TIM_GetCounter
    ticks.o(i.ticks_callback) refers to ticks.o(.data) for delayTimer
    ticks.o(i.ticks_callback) refers to iap.o(.data) for slot_timer
    ticks.o(i.ticks_callback) refers to barometer.o(.data) for baroUpdateTimer
    ticks.o(i.ticks_callback) refers to altitude.o(.data) for altitudeCtrlTimer
    ticks.o(i.ticks_callback) refers to opflow.o(.data) for opticalflowCtrlTimer
    ticks.o(i.ticks_callback) refers to led.o(.data) for ledCtrlTimer
    ticks.o(i.ticks_callback) refers to i2c_soft.o(.data) for i2cTestTimer
    ticks.o(i.ticks_callback) refers to mpu6050.o(.data) for mpu6050TestTimer
    ticks.o(i.ticks_callback) refers to decode.o(.data) for calibrationEnbTimer
    ticks.o(i.ticks_callback) refers to main.o(.data) for printTestTimer
    ticks.o(i.ticks_init) refers to hw_timer.o(i.hw_tim6_init) for hw_tim6_init
    ticks.o(i.ticks_init) refers to hw_timer.o(i.hw_tim4_init) for hw_tim4_init
    ticks.o(i.ticks_init) refers to ticks.o(i.ticks_callback) for ticks_callback
    ticks.o(i.ticks_stop) refers to stm32f10x_tim.o(i.TIM_Cmd) for TIM_Cmd
    i2c_soft.o(i.i2c_test) refers to i2c_soft.o(i.soft_i2c_buffer_read) for soft_i2c_buffer_read
    i2c_soft.o(i.i2c_test) refers to printfa.o(i.__0printf) for __2printf
    i2c_soft.o(i.i2c_test) refers to i2c_soft.o(.data) for i2cTestTimer
    i2c_soft.o(i.soft_i2c_buffer_read) refers to i2c_soft.o(i.soft_i2c_start) for soft_i2c_start
    i2c_soft.o(i.soft_i2c_buffer_read) refers to i2c_soft.o(i.soft_i2c_write) for soft_i2c_write
    i2c_soft.o(i.soft_i2c_buffer_read) refers to hw_i2c_soft.o(i.hw_soft_i2c_sda_input) for hw_soft_i2c_sda_input
    i2c_soft.o(i.soft_i2c_buffer_read) refers to i2c_soft.o(i.soft_i2c_read) for soft_i2c_read
    i2c_soft.o(i.soft_i2c_buffer_read) refers to hw_i2c_soft.o(i.hw_soft_i2c_sda_output) for hw_soft_i2c_sda_output
    i2c_soft.o(i.soft_i2c_buffer_read) refers to i2c_soft.o(i.soft_i2c_stop) for soft_i2c_stop
    i2c_soft.o(i.soft_i2c_init) refers to hw_i2c_soft.o(i.hw_soft_i2c_init) for hw_soft_i2c_init
    i2c_soft.o(i.soft_i2c_read) refers to i2c_soft.o(i.soft_i2c_delay) for soft_i2c_delay
    i2c_soft.o(i.soft_i2c_read) refers to hw_i2c_soft.o(i.hw_soft_i2c_sda_output) for hw_soft_i2c_sda_output
    i2c_soft.o(i.soft_i2c_read) refers to hw_i2c_soft.o(i.hw_soft_i2c_sda_input) for hw_soft_i2c_sda_input
    i2c_soft.o(i.soft_i2c_read_reg) refers to i2c_soft.o(i.soft_i2c_start) for soft_i2c_start
    i2c_soft.o(i.soft_i2c_read_reg) refers to i2c_soft.o(i.soft_i2c_write) for soft_i2c_write
    i2c_soft.o(i.soft_i2c_read_reg) refers to hw_i2c_soft.o(i.hw_soft_i2c_sda_input) for hw_soft_i2c_sda_input
    i2c_soft.o(i.soft_i2c_read_reg) refers to i2c_soft.o(i.soft_i2c_read) for soft_i2c_read
    i2c_soft.o(i.soft_i2c_read_reg) refers to hw_i2c_soft.o(i.hw_soft_i2c_sda_output) for hw_soft_i2c_sda_output
    i2c_soft.o(i.soft_i2c_read_reg) refers to i2c_soft.o(i.soft_i2c_stop) for soft_i2c_stop
    i2c_soft.o(i.soft_i2c_start) refers to i2c_soft.o(i.soft_i2c_delay) for soft_i2c_delay
    i2c_soft.o(i.soft_i2c_stop) refers to i2c_soft.o(i.soft_i2c_delay) for soft_i2c_delay
    i2c_soft.o(i.soft_i2c_write) refers to i2c_soft.o(i.soft_i2c_delay) for soft_i2c_delay
    i2c_soft.o(i.soft_i2c_write) refers to hw_i2c_soft.o(i.hw_soft_i2c_sda_input) for hw_soft_i2c_sda_input
    i2c_soft.o(i.soft_i2c_write) refers to hw_i2c_soft.o(i.hw_soft_i2c_sda_output) for hw_soft_i2c_sda_output
    i2c_soft.o(i.soft_i2c_write_reg) refers to i2c_soft.o(i.soft_i2c_start) for soft_i2c_start
    i2c_soft.o(i.soft_i2c_write_reg) refers to i2c_soft.o(i.soft_i2c_write) for soft_i2c_write
    i2c_soft.o(i.soft_i2c_write_reg) refers to i2c_soft.o(i.soft_i2c_stop) for soft_i2c_stop
    uart.o(i.debug_uart_init) refers to memseta.o(.text) for __aeabi_memclr4
    uart.o(i.debug_uart_init) refers to hw_uart.o(i.hw_debug_uart_init) for hw_debug_uart_init
    uart.o(i.debug_uart_init) refers to uart.o(.bss) for debugUART
    uart.o(i.debug_uart_init) refers to hw_uart.o(.bss) for hwDebugUart
    uart.o(i.fputc) refers to uart.o(i.serial_write_tx_fifo) for serial_write_tx_fifo
    uart.o(i.fputc) refers to uart.o(i.uart_send_data) for uart_send_data
    uart.o(i.opflow_uart_available) refers to uart.o(.bss) for opflowUART
    uart.o(i.opflow_uart_init) refers to memseta.o(.text) for __aeabi_memclr4
    uart.o(i.opflow_uart_init) refers to hw_uart.o(i.hw_opticalflow_uart_init) for hw_opticalflow_uart_init
    uart.o(i.opflow_uart_init) refers to uart.o(.bss) for opflowUART
    uart.o(i.opflow_uart_init) refers to hw_uart.o(.bss) for hwOpflowUart
    uart.o(i.opflow_uart_read_rx_fifo) refers to uart.o(.bss) for opflowUART
    uart.o(i.serial_available) refers to uart.o(.bss) for debugUART
    uart.o(i.serial_flush_rx_fifo) refers to uart.o(.bss) for debugUART
    uart.o(i.serial_read_rx_fifo) refers to uart.o(.bss) for debugUART
    uart.o(i.serial_used_tx_fifo) refers to uart.o(.bss) for debugUART
    uart.o(i.serial_write_buffer) refers to uart.o(i.serial_write_tx_fifo) for serial_write_tx_fifo
    uart.o(i.serial_write_buffer) refers to uart.o(i.uart_send_data) for uart_send_data
    uart.o(i.serial_write_tx_fifo) refers to uart.o(.bss) for debugUART
    uart.o(i.uart_send_data) refers to stm32f10x_usart.o(i.USART_ITConfig) for USART_ITConfig
    uart.o(i.uart_test_x) refers to uart.o(i.serial_available) for serial_available
    uart.o(i.uart_test_x) refers to uart.o(i.serial_read_rx_fifo) for serial_read_rx_fifo
    uart.o(i.uart_test_x) refers to uart.o(i.serial_write_tx_fifo) for serial_write_tx_fifo
    uart.o(i.uart_test_x) refers to uart.o(i.uart_send_data) for uart_send_data
    iap.o(i.IAP_UPDATE_APP) refers to iap.o(i.app_flash_write) for app_flash_write
    iap.o(i.IAP_UPDATE_APP) refers to memseta.o(.text) for __aeabi_memclr4
    iap.o(i.IAP_UPDATE_APP) refers to iap.o(.data) for pages_number
    iap.o(i.IAP_UPDATE_APP) refers to iap.o(.bss) for flash_buf
    iap.o(i.app_flag_write) refers to stm32f10x_flash.o(i.FLASH_Unlock) for FLASH_Unlock
    iap.o(i.app_flag_write) refers to stm32f10x_flash.o(i.FLASH_ClearFlag) for FLASH_ClearFlag
    iap.o(i.app_flag_write) refers to stm32f10x_flash.o(i.FLASH_ErasePage) for FLASH_ErasePage
    iap.o(i.app_flag_write) refers to stm32f10x_flash.o(i.FLASH_ProgramWord) for FLASH_ProgramWord
    iap.o(i.app_flag_write) refers to stm32f10x_flash.o(i.FLASH_Lock) for FLASH_Lock
    iap.o(i.app_flash_write) refers to stm32f10x_flash.o(i.FLASH_Unlock) for FLASH_Unlock
    iap.o(i.app_flash_write) refers to stm32f10x_flash.o(i.FLASH_ClearFlag) for FLASH_ClearFlag
    iap.o(i.app_flash_write) refers to stm32f10x_flash.o(i.FLASH_ErasePage) for FLASH_ErasePage
    iap.o(i.app_flash_write) refers to stm32f10x_flash.o(i.FLASH_ProgramWord) for FLASH_ProgramWord
    iap.o(i.app_flash_write) refers to stm32f10x_flash.o(i.FLASH_Lock) for FLASH_Lock
    iap.o(i.cfg_init_temp) refers to iap.o(i.FLASH_ReadWord) for FLASH_ReadWord
    iap.o(i.cfg_init_temp) refers to iap.o(.bss) for cfgTemp
    iap.o(i.cfg_save_temp) refers to stm32f10x_usart.o(i.USART_Cmd) for USART_Cmd
    iap.o(i.cfg_save_temp) refers to stm32f10x_flash.o(i.FLASH_Unlock) for FLASH_Unlock
    iap.o(i.cfg_save_temp) refers to stm32f10x_flash.o(i.FLASH_ClearFlag) for FLASH_ClearFlag
    iap.o(i.cfg_save_temp) refers to stm32f10x_flash.o(i.FLASH_ErasePage) for FLASH_ErasePage
    iap.o(i.cfg_save_temp) refers to stm32f10x_flash.o(i.FLASH_ProgramWord) for FLASH_ProgramWord
    iap.o(i.cfg_save_temp) refers to stm32f10x_flash.o(i.FLASH_Lock) for FLASH_Lock
    iap.o(i.cfg_save_temp) refers to iap.o(.bss) for cfgTemp
    iap.o(i.iap_for_app) refers to ticks.o(i.delay_ms) for delay_ms
    iap.o(i.iap_for_app) refers to iap.o(i.send_ack) for send_ack
    iap.o(i.iap_for_app) refers to printfa.o(i.__0printf) for __2printf
    iap.o(i.iap_for_app) refers to stm32f10x_usart.o(i.USART_Cmd) for USART_Cmd
    iap.o(i.iap_for_app) refers to ticks.o(i.ticks_stop) for ticks_stop
    iap.o(i.iap_for_app) refers to iap.o(i.app_flag_write) for app_flag_write
    iap.o(i.iap_for_app_init) refers to iap.o(i.FLASH_ReadWord) for FLASH_ReadWord
    iap.o(i.iap_for_app_init) refers to iap.o(i.app_flag_write) for app_flag_write
    iap.o(i.iap_for_app_init) refers to memseta.o(.text) for __aeabi_memclr4
    iap.o(i.iap_for_app_init) refers to iap.o(i.cfg_init_temp) for cfg_init_temp
    iap.o(i.iap_for_app_init) refers to iap.o(.bss) for RX_buf
    iap.o(i.iap_init) refers to iap.o(.data) for f_IAP_flashing
    iap.o(i.iap_load_app) refers to iap.o(.emb_text) for MSR_MSP
    iap.o(i.iap_load_app) refers to iap.o(.data) for jump2app
    iap.o(i.iap_uart_receive) refers to uart.o(i.serial_available) for serial_available
    iap.o(i.iap_uart_receive) refers to uart.o(i.serial_read_rx_fifo) for serial_read_rx_fifo
    iap.o(i.iap_uart_receive) refers to iap.o(i.send_ack) for send_ack
    iap.o(i.iap_uart_receive) refers to ticks.o(i.delay_ms) for delay_ms
    iap.o(i.iap_uart_receive) refers to memcpya.o(.text) for __aeabi_memcpy4
    iap.o(i.iap_uart_receive) refers to memseta.o(.text) for __aeabi_memclr4
    iap.o(i.iap_uart_receive) refers to iap.o(.data) for slot_timer
    iap.o(i.iap_uart_receive) refers to iap.o(.bss) for RX_buf
    iap.o(i.send_ack) refers to uart.o(i.serial_write_buffer) for serial_write_buffer
    iap.o(i.send_ack) refers to iap.o(.bss) for RX_buf
    main.o(i.main) refers to iap.o(i.iap_for_app_init) for iap_for_app_init
    main.o(i.main) refers to led.o(i.led_init) for led_init
    main.o(i.main) refers to ticks.o(i.ticks_init) for ticks_init
    main.o(i.main) refers to uart.o(i.debug_uart_init) for debug_uart_init
    main.o(i.main) refers to i2c_soft.o(i.soft_i2c_init) for soft_i2c_init
    main.o(i.main) refers to motor.o(i.motor_init) for motor_init
    main.o(i.main) refers to printfa.o(i.__0printf) for __2printf
    main.o(i.main) refers to ticks.o(i.delay_ms) for delay_ms
    main.o(i.main) refers to accgyro.o(i.accgyro_init) for accgyro_init
    main.o(i.main) refers to imu.o(i.imu_init) for imu_init
    main.o(i.main) refers to barometer.o(i.baro_init) for baro_init
    main.o(i.main) refers to opflow.o(i.opflow_init) for opflow_init
    main.o(i.main) refers to led.o(i.led_ctrl) for led_ctrl
    main.o(i.main) refers to msp.o(i.msp) for msp
    main.o(i.main) refers to decode.o(i.annexCode) for annexCode
    main.o(i.main) refers to altitude.o(i.altitude_ctrl) for altitude_ctrl
    main.o(i.main) refers to fc.o(i.flight_ctrl) for flight_ctrl
    main.o(i.main) refers to fflti.o(.text) for __aeabi_i2f
    main.o(i.main) refers to fdiv.o(.text) for __aeabi_fdiv
    main.o(i.main) refers to f2d.o(.text) for __aeabi_f2d
    main.o(i.main) refers to fc.o(.data) for fc
    main.o(i.main) refers to main.o(.data) for powerupTimer
    main.o(i.main) refers to accgyro.o(.bss) for accgyro
    main.o(i.main) refers to imu.o(.data) for angle
    main.o(i.main) refers to altitude.o(.data) for BaroAlt
    main.o(i.main) refers to decode.o(.data) for rcCommand
    stm32f10x_rcc.o(i.RCC_GetClocksFreq) refers to stm32f10x_rcc.o(.data) for APBAHBPrescTable
    stm32f10x_rcc.o(i.RCC_WaitForHSEStartUp) refers to stm32f10x_rcc.o(i.RCC_GetFlagStatus) for RCC_GetFlagStatus
    stm32f10x_gpio.o(i.GPIO_AFIODeInit) refers to stm32f10x_rcc.o(i.RCC_APB2PeriphResetCmd) for RCC_APB2PeriphResetCmd
    stm32f10x_gpio.o(i.GPIO_DeInit) refers to stm32f10x_rcc.o(i.RCC_APB2PeriphResetCmd) for RCC_APB2PeriphResetCmd
    stm32f10x_spi.o(i.I2S_Init) refers to stm32f10x_rcc.o(i.RCC_GetClocksFreq) for RCC_GetClocksFreq
    stm32f10x_spi.o(i.SPI_I2S_DeInit) refers to stm32f10x_rcc.o(i.RCC_APB2PeriphResetCmd) for RCC_APB2PeriphResetCmd
    stm32f10x_spi.o(i.SPI_I2S_DeInit) refers to stm32f10x_rcc.o(i.RCC_APB1PeriphResetCmd) for RCC_APB1PeriphResetCmd
    stm32f10x_usart.o(i.USART_DeInit) refers to stm32f10x_rcc.o(i.RCC_APB2PeriphResetCmd) for RCC_APB2PeriphResetCmd
    stm32f10x_usart.o(i.USART_DeInit) refers to stm32f10x_rcc.o(i.RCC_APB1PeriphResetCmd) for RCC_APB1PeriphResetCmd
    stm32f10x_usart.o(i.USART_Init) refers to stm32f10x_rcc.o(i.RCC_GetClocksFreq) for RCC_GetClocksFreq
    stm32f10x_i2c.o(i.I2C_DeInit) refers to stm32f10x_rcc.o(i.RCC_APB1PeriphResetCmd) for RCC_APB1PeriphResetCmd
    stm32f10x_i2c.o(i.I2C_Init) refers to stm32f10x_rcc.o(i.RCC_GetClocksFreq) for RCC_GetClocksFreq
    stm32f10x_adc.o(i.ADC_DeInit) refers to stm32f10x_rcc.o(i.RCC_APB2PeriphResetCmd) for RCC_APB2PeriphResetCmd
    stm32f10x_bkp.o(i.BKP_DeInit) refers to stm32f10x_rcc.o(i.RCC_BackupResetCmd) for RCC_BackupResetCmd
    stm32f10x_can.o(i.CAN_DeInit) refers to stm32f10x_rcc.o(i.RCC_APB1PeriphResetCmd) for RCC_APB1PeriphResetCmd
    stm32f10x_can.o(i.CAN_GetITStatus) refers to stm32f10x_can.o(i.CheckITStatus) for CheckITStatus
    stm32f10x_cec.o(i.CEC_DeInit) refers to stm32f10x_rcc.o(i.RCC_APB1PeriphResetCmd) for RCC_APB1PeriphResetCmd
    stm32f10x_dac.o(i.DAC_DeInit) refers to stm32f10x_rcc.o(i.RCC_APB1PeriphResetCmd) for RCC_APB1PeriphResetCmd
    stm32f10x_flash.o(i.FLASH_EnableWriteProtection) refers to stm32f10x_flash.o(i.FLASH_WaitForLastOperation) for FLASH_WaitForLastOperation
    stm32f10x_flash.o(i.FLASH_EraseAllBank1Pages) refers to stm32f10x_flash.o(i.FLASH_WaitForLastBank1Operation) for FLASH_WaitForLastBank1Operation
    stm32f10x_flash.o(i.FLASH_EraseAllPages) refers to stm32f10x_flash.o(i.FLASH_WaitForLastOperation) for FLASH_WaitForLastOperation
    stm32f10x_flash.o(i.FLASH_EraseOptionBytes) refers to stm32f10x_flash.o(i.FLASH_GetReadOutProtectionStatus) for FLASH_GetReadOutProtectionStatus
    stm32f10x_flash.o(i.FLASH_EraseOptionBytes) refers to stm32f10x_flash.o(i.FLASH_WaitForLastOperation) for FLASH_WaitForLastOperation
    stm32f10x_flash.o(i.FLASH_ErasePage) refers to stm32f10x_flash.o(i.FLASH_WaitForLastOperation) for FLASH_WaitForLastOperation
    stm32f10x_flash.o(i.FLASH_ProgramHalfWord) refers to stm32f10x_flash.o(i.FLASH_WaitForLastOperation) for FLASH_WaitForLastOperation
    stm32f10x_flash.o(i.FLASH_ProgramOptionByteData) refers to stm32f10x_flash.o(i.FLASH_WaitForLastOperation) for FLASH_WaitForLastOperation
    stm32f10x_flash.o(i.FLASH_ProgramWord) refers to stm32f10x_flash.o(i.FLASH_WaitForLastOperation) for FLASH_WaitForLastOperation
    stm32f10x_flash.o(i.FLASH_ReadOutProtection) refers to stm32f10x_flash.o(i.FLASH_WaitForLastOperation) for FLASH_WaitForLastOperation
    stm32f10x_flash.o(i.FLASH_UserOptionByteConfig) refers to stm32f10x_flash.o(i.FLASH_WaitForLastOperation) for FLASH_WaitForLastOperation
    stm32f10x_flash.o(i.FLASH_WaitForLastBank1Operation) refers to stm32f10x_flash.o(i.FLASH_GetBank1Status) for FLASH_GetBank1Status
    stm32f10x_flash.o(i.FLASH_WaitForLastOperation) refers to stm32f10x_flash.o(i.FLASH_GetBank1Status) for FLASH_GetBank1Status
    stm32f10x_pwr.o(i.PWR_DeInit) refers to stm32f10x_rcc.o(i.RCC_APB1PeriphResetCmd) for RCC_APB1PeriphResetCmd
    stm32f10x_rtc.o(i.RTC_SetAlarm) refers to stm32f10x_rtc.o(i.RTC_EnterConfigMode) for RTC_EnterConfigMode
    stm32f10x_rtc.o(i.RTC_SetAlarm) refers to stm32f10x_rtc.o(i.RTC_ExitConfigMode) for RTC_ExitConfigMode
    stm32f10x_rtc.o(i.RTC_SetCounter) refers to stm32f10x_rtc.o(i.RTC_EnterConfigMode) for RTC_EnterConfigMode
    stm32f10x_rtc.o(i.RTC_SetCounter) refers to stm32f10x_rtc.o(i.RTC_ExitConfigMode) for RTC_ExitConfigMode
    stm32f10x_rtc.o(i.RTC_SetPrescaler) refers to stm32f10x_rtc.o(i.RTC_EnterConfigMode) for RTC_EnterConfigMode
    stm32f10x_rtc.o(i.RTC_SetPrescaler) refers to stm32f10x_rtc.o(i.RTC_ExitConfigMode) for RTC_ExitConfigMode
    stm32f10x_tim.o(i.TIM_DeInit) refers to stm32f10x_rcc.o(i.RCC_APB2PeriphResetCmd) for RCC_APB2PeriphResetCmd
    stm32f10x_tim.o(i.TIM_DeInit) refers to stm32f10x_rcc.o(i.RCC_APB1PeriphResetCmd) for RCC_APB1PeriphResetCmd
    stm32f10x_tim.o(i.TIM_ETRClockMode1Config) refers to stm32f10x_tim.o(i.TIM_ETRConfig) for TIM_ETRConfig
    stm32f10x_tim.o(i.TIM_ETRClockMode2Config) refers to stm32f10x_tim.o(i.TIM_ETRConfig) for TIM_ETRConfig
    stm32f10x_tim.o(i.TIM_ICInit) refers to stm32f10x_tim.o(i.TI1_Config) for TI1_Config
    stm32f10x_tim.o(i.TIM_ICInit) refers to stm32f10x_tim.o(i.TIM_SetIC1Prescaler) for TIM_SetIC1Prescaler
    stm32f10x_tim.o(i.TIM_ICInit) refers to stm32f10x_tim.o(i.TI2_Config) for TI2_Config
    stm32f10x_tim.o(i.TIM_ICInit) refers to stm32f10x_tim.o(i.TIM_SetIC2Prescaler) for TIM_SetIC2Prescaler
    stm32f10x_tim.o(i.TIM_ICInit) refers to stm32f10x_tim.o(i.TI3_Config) for TI3_Config
    stm32f10x_tim.o(i.TIM_ICInit) refers to stm32f10x_tim.o(i.TIM_SetIC3Prescaler) for TIM_SetIC3Prescaler
    stm32f10x_tim.o(i.TIM_ICInit) refers to stm32f10x_tim.o(i.TI4_Config) for TI4_Config
    stm32f10x_tim.o(i.TIM_ICInit) refers to stm32f10x_tim.o(i.TIM_SetIC4Prescaler) for TIM_SetIC4Prescaler
    stm32f10x_tim.o(i.TIM_ITRxExternalClockConfig) refers to stm32f10x_tim.o(i.TIM_SelectInputTrigger) for TIM_SelectInputTrigger
    stm32f10x_tim.o(i.TIM_PWMIConfig) refers to stm32f10x_tim.o(i.TI1_Config) for TI1_Config
    stm32f10x_tim.o(i.TIM_PWMIConfig) refers to stm32f10x_tim.o(i.TIM_SetIC1Prescaler) for TIM_SetIC1Prescaler
    stm32f10x_tim.o(i.TIM_PWMIConfig) refers to stm32f10x_tim.o(i.TI2_Config) for TI2_Config
    stm32f10x_tim.o(i.TIM_PWMIConfig) refers to stm32f10x_tim.o(i.TIM_SetIC2Prescaler) for TIM_SetIC2Prescaler
    stm32f10x_tim.o(i.TIM_TIxExternalClockConfig) refers to stm32f10x_tim.o(i.TI2_Config) for TI2_Config
    stm32f10x_tim.o(i.TIM_TIxExternalClockConfig) refers to stm32f10x_tim.o(i.TI1_Config) for TI1_Config
    stm32f10x_tim.o(i.TIM_TIxExternalClockConfig) refers to stm32f10x_tim.o(i.TIM_SelectInputTrigger) for TIM_SelectInputTrigger
    stm32f10x_wwdg.o(i.WWDG_DeInit) refers to stm32f10x_rcc.o(i.RCC_APB1PeriphResetCmd) for RCC_APB1PeriphResetCmd
    system_stm32f10x.o(i.HSI_SetSysClock) refers to stm32f10x_rcc.o(i.RCC_DeInit) for RCC_DeInit
    system_stm32f10x.o(i.HSI_SetSysClock) refers to stm32f10x_rcc.o(i.RCC_HSICmd) for RCC_HSICmd
    system_stm32f10x.o(i.HSI_SetSysClock) refers to stm32f10x_flash.o(i.FLASH_PrefetchBufferCmd) for FLASH_PrefetchBufferCmd
    system_stm32f10x.o(i.HSI_SetSysClock) refers to stm32f10x_flash.o(i.FLASH_SetLatency) for FLASH_SetLatency
    system_stm32f10x.o(i.HSI_SetSysClock) refers to stm32f10x_rcc.o(i.RCC_HCLKConfig) for RCC_HCLKConfig
    system_stm32f10x.o(i.HSI_SetSysClock) refers to stm32f10x_rcc.o(i.RCC_PCLK2Config) for RCC_PCLK2Config
    system_stm32f10x.o(i.HSI_SetSysClock) refers to stm32f10x_rcc.o(i.RCC_PCLK1Config) for RCC_PCLK1Config
    system_stm32f10x.o(i.HSI_SetSysClock) refers to stm32f10x_rcc.o(i.RCC_PLLConfig) for RCC_PLLConfig
    system_stm32f10x.o(i.HSI_SetSysClock) refers to stm32f10x_rcc.o(i.RCC_PLLCmd) for RCC_PLLCmd
    system_stm32f10x.o(i.HSI_SetSysClock) refers to stm32f10x_rcc.o(i.RCC_GetFlagStatus) for RCC_GetFlagStatus
    system_stm32f10x.o(i.HSI_SetSysClock) refers to stm32f10x_rcc.o(i.RCC_SYSCLKConfig) for RCC_SYSCLKConfig
    system_stm32f10x.o(i.HSI_SetSysClock) refers to stm32f10x_rcc.o(i.RCC_GetSYSCLKSource) for RCC_GetSYSCLKSource
    system_stm32f10x.o(i.RCC_Configuration) refers to stm32f10x_rcc.o(i.RCC_DeInit) for RCC_DeInit
    system_stm32f10x.o(i.RCC_Configuration) refers to stm32f10x_rcc.o(i.RCC_HSICmd) for RCC_HSICmd
    system_stm32f10x.o(i.RCC_Configuration) refers to stm32f10x_rcc.o(i.RCC_GetFlagStatus) for RCC_GetFlagStatus
    system_stm32f10x.o(i.RCC_Configuration) refers to stm32f10x_flash.o(i.FLASH_PrefetchBufferCmd) for FLASH_PrefetchBufferCmd
    system_stm32f10x.o(i.RCC_Configuration) refers to stm32f10x_flash.o(i.FLASH_SetLatency) for FLASH_SetLatency
    system_stm32f10x.o(i.RCC_Configuration) refers to stm32f10x_rcc.o(i.RCC_HCLKConfig) for RCC_HCLKConfig
    system_stm32f10x.o(i.RCC_Configuration) refers to stm32f10x_rcc.o(i.RCC_PCLK1Config) for RCC_PCLK1Config
    system_stm32f10x.o(i.RCC_Configuration) refers to stm32f10x_rcc.o(i.RCC_PCLK2Config) for RCC_PCLK2Config
    system_stm32f10x.o(i.RCC_Configuration) refers to stm32f10x_rcc.o(i.RCC_PLLConfig) for RCC_PLLConfig
    system_stm32f10x.o(i.RCC_Configuration) refers to stm32f10x_rcc.o(i.RCC_PLLCmd) for RCC_PLLCmd
    system_stm32f10x.o(i.RCC_Configuration) refers to stm32f10x_rcc.o(i.RCC_SYSCLKConfig) for RCC_SYSCLKConfig
    system_stm32f10x.o(i.RCC_Configuration) refers to stm32f10x_rcc.o(i.RCC_GetSYSCLKSource) for RCC_GetSYSCLKSource
    system_stm32f10x.o(i.SetSysClock) refers to system_stm32f10x.o(i.HSI_SetSysClock) for HSI_SetSysClock
    system_stm32f10x.o(i.SystemCoreClockUpdate) refers to system_stm32f10x.o(.data) for SystemCoreClock
    system_stm32f10x.o(i.SystemInit) refers to system_stm32f10x.o(i.SetSysClock) for SetSysClock
    system_stm32f10x.o(i.SystemInit) refers to system_stm32f10x.o(i.RCC_Configuration) for RCC_Configuration
    system_stm32f10x.o(i.SystemInit) refers to stm32f10x_rcc.o(i.RCC_APB2PeriphClockCmd) for RCC_APB2PeriphClockCmd
    system_stm32f10x.o(i.SystemInit) refers to stm32f10x_gpio.o(i.GPIO_PinRemapConfig) for GPIO_PinRemapConfig
    startup_stm32f10x_hd_vl.o(RESET) refers to startup_stm32f10x_hd_vl.o(STACK) for __initial_sp
    startup_stm32f10x_hd_vl.o(RESET) refers to startup_stm32f10x_hd_vl.o(.text) for Reset_Handler
    startup_stm32f10x_hd_vl.o(RESET) refers to hw_timer.o(i.TIM2_IRQHandler) for TIM2_IRQHandler
    startup_stm32f10x_hd_vl.o(RESET) refers to hw_uart.o(i.USART1_IRQHandler) for USART1_IRQHandler
    startup_stm32f10x_hd_vl.o(RESET) refers to hw_uart.o(i.USART3_IRQHandler) for USART3_IRQHandler
    startup_stm32f10x_hd_vl.o(.text) refers to system_stm32f10x.o(i.SystemInit) for SystemInit
    startup_stm32f10x_hd_vl.o(.text) refers to entry.o(.ARM.Collect$$$$00000000) for __main
    hw_i2c_soft.o(i.hw_soft_i2c_init) refers to stm32f10x_rcc.o(i.RCC_APB2PeriphClockCmd) for RCC_APB2PeriphClockCmd
    hw_i2c_soft.o(i.hw_soft_i2c_init) refers to stm32f10x_gpio.o(i.GPIO_Init) for GPIO_Init
    hw_led.o(i.hw_led_initialize) refers to stm32f10x_rcc.o(i.RCC_APB2PeriphClockCmd) for RCC_APB2PeriphClockCmd
    hw_led.o(i.hw_led_initialize) refers to stm32f10x_gpio.o(i.GPIO_Init) for GPIO_Init
    hw_timer.o(i.TIM2_IRQHandler) refers to stm32f10x_tim.o(i.TIM_ClearITPendingBit) for TIM_ClearITPendingBit
    hw_timer.o(i.TIM2_IRQHandler) refers to hw_timer.o(.data) for pTickCallback
    hw_timer.o(i.hw_tim3_init) refers to stm32f10x_rcc.o(i.RCC_APB1PeriphClockCmd) for RCC_APB1PeriphClockCmd
    hw_timer.o(i.hw_tim3_init) refers to stm32f10x_rcc.o(i.RCC_APB2PeriphClockCmd) for RCC_APB2PeriphClockCmd
    hw_timer.o(i.hw_tim3_init) refers to stm32f10x_gpio.o(i.GPIO_Init) for GPIO_Init
    hw_timer.o(i.hw_tim3_init) refers to stm32f10x_tim.o(i.TIM_TimeBaseInit) for TIM_TimeBaseInit
    hw_timer.o(i.hw_tim3_init) refers to stm32f10x_tim.o(i.TIM_OC1Init) for TIM_OC1Init
    hw_timer.o(i.hw_tim3_init) refers to stm32f10x_tim.o(i.TIM_OC1PreloadConfig) for TIM_OC1PreloadConfig
    hw_timer.o(i.hw_tim3_init) refers to stm32f10x_tim.o(i.TIM_OC2Init) for TIM_OC2Init
    hw_timer.o(i.hw_tim3_init) refers to stm32f10x_tim.o(i.TIM_OC2PreloadConfig) for TIM_OC2PreloadConfig
    hw_timer.o(i.hw_tim3_init) refers to stm32f10x_tim.o(i.TIM_OC3Init) for TIM_OC3Init
    hw_timer.o(i.hw_tim3_init) refers to stm32f10x_tim.o(i.TIM_OC3PreloadConfig) for TIM_OC3PreloadConfig
    hw_timer.o(i.hw_tim3_init) refers to stm32f10x_tim.o(i.TIM_OC4Init) for TIM_OC4Init
    hw_timer.o(i.hw_tim3_init) refers to stm32f10x_tim.o(i.TIM_OC4PreloadConfig) for TIM_OC4PreloadConfig
    hw_timer.o(i.hw_tim3_init) refers to stm32f10x_tim.o(i.TIM_ARRPreloadConfig) for TIM_ARRPreloadConfig
    hw_timer.o(i.hw_tim3_init) refers to stm32f10x_tim.o(i.TIM_Cmd) for TIM_Cmd
    hw_timer.o(i.hw_tim4_init) refers to stm32f10x_rcc.o(i.RCC_APB1PeriphClockCmd) for RCC_APB1PeriphClockCmd
    hw_timer.o(i.hw_tim4_init) refers to stm32f10x_tim.o(i.TIM_TimeBaseInit) for TIM_TimeBaseInit
    hw_timer.o(i.hw_tim4_init) refers to stm32f10x_tim.o(i.TIM_Cmd) for TIM_Cmd
    hw_timer.o(i.hw_tim6_init) refers to stm32f10x_rcc.o(i.RCC_APB1PeriphClockCmd) for RCC_APB1PeriphClockCmd
    hw_timer.o(i.hw_tim6_init) refers to misc.o(i.NVIC_Init) for NVIC_Init
    hw_timer.o(i.hw_tim6_init) refers to stm32f10x_tim.o(i.TIM_TimeBaseInit) for TIM_TimeBaseInit
    hw_timer.o(i.hw_tim6_init) refers to stm32f10x_tim.o(i.TIM_ITConfig) for TIM_ITConfig
    hw_timer.o(i.hw_tim6_init) refers to stm32f10x_tim.o(i.TIM_Cmd) for TIM_Cmd
    hw_timer.o(i.hw_tim6_init) refers to hw_timer.o(.data) for pTickCallback
    hw_uart.o(i.USART1_IRQHandler) refers to stm32f10x_usart.o(i.USART_GetITStatus) for USART_GetITStatus
    hw_uart.o(i.USART1_IRQHandler) refers to stm32f10x_usart.o(i.USART_ClearITPendingBit) for USART_ClearITPendingBit
    hw_uart.o(i.USART1_IRQHandler) refers to stm32f10x_usart.o(i.USART_ReceiveData) for USART_ReceiveData
    hw_uart.o(i.USART1_IRQHandler) refers to stm32f10x_usart.o(i.USART_SendData) for USART_SendData
    hw_uart.o(i.USART1_IRQHandler) refers to stm32f10x_usart.o(i.USART_ITConfig) for USART_ITConfig
    hw_uart.o(i.USART1_IRQHandler) refers to hw_uart.o(.bss) for hwDebugUart
    hw_uart.o(i.USART3_IRQHandler) refers to stm32f10x_usart.o(i.USART_GetITStatus) for USART_GetITStatus
    hw_uart.o(i.USART3_IRQHandler) refers to stm32f10x_usart.o(i.USART_ReceiveData) for USART_ReceiveData
    hw_uart.o(i.USART3_IRQHandler) refers to stm32f10x_usart.o(i.USART_SendData) for USART_SendData
    hw_uart.o(i.USART3_IRQHandler) refers to stm32f10x_usart.o(i.USART_ITConfig) for USART_ITConfig
    hw_uart.o(i.USART3_IRQHandler) refers to hw_uart.o(.bss) for hwOpflowUart
    hw_uart.o(i.hw_debug_uart_init) refers to stm32f10x_rcc.o(i.RCC_APB2PeriphClockCmd) for RCC_APB2PeriphClockCmd
    hw_uart.o(i.hw_debug_uart_init) refers to stm32f10x_gpio.o(i.GPIO_Init) for GPIO_Init
    hw_uart.o(i.hw_debug_uart_init) refers to stm32f10x_usart.o(i.USART_Init) for USART_Init
    hw_uart.o(i.hw_debug_uart_init) refers to misc.o(i.NVIC_PriorityGroupConfig) for NVIC_PriorityGroupConfig
    hw_uart.o(i.hw_debug_uart_init) refers to misc.o(i.NVIC_Init) for NVIC_Init
    hw_uart.o(i.hw_debug_uart_init) refers to stm32f10x_usart.o(i.USART_ITConfig) for USART_ITConfig
    hw_uart.o(i.hw_debug_uart_init) refers to stm32f10x_usart.o(i.USART_Cmd) for USART_Cmd
    hw_uart.o(i.hw_debug_uart_init) refers to hw_uart.o(.bss) for hwDebugUart
    hw_uart.o(i.hw_opticalflow_uart_init) refers to stm32f10x_rcc.o(i.RCC_APB2PeriphClockCmd) for RCC_APB2PeriphClockCmd
    hw_uart.o(i.hw_opticalflow_uart_init) refers to stm32f10x_rcc.o(i.RCC_APB1PeriphClockCmd) for RCC_APB1PeriphClockCmd
    hw_uart.o(i.hw_opticalflow_uart_init) refers to stm32f10x_gpio.o(i.GPIO_Init) for GPIO_Init
    hw_uart.o(i.hw_opticalflow_uart_init) refers to stm32f10x_usart.o(i.USART_Init) for USART_Init
    hw_uart.o(i.hw_opticalflow_uart_init) refers to misc.o(i.NVIC_PriorityGroupConfig) for NVIC_PriorityGroupConfig
    hw_uart.o(i.hw_opticalflow_uart_init) refers to misc.o(i.NVIC_Init) for NVIC_Init
    hw_uart.o(i.hw_opticalflow_uart_init) refers to stm32f10x_usart.o(i.USART_ITConfig) for USART_ITConfig
    hw_uart.o(i.hw_opticalflow_uart_init) refers to stm32f10x_usart.o(i.USART_Cmd) for USART_Cmd
    hw_uart.o(i.hw_opticalflow_uart_init) refers to hw_uart.o(.bss) for hwDebugUart
    filter.o(i.biquadFilterApply) refers to fmul.o(.text) for __aeabi_fmul
    filter.o(i.biquadFilterApply) refers to fadd.o(.text) for __aeabi_fadd
    filter.o(i.biquadFilterInit) refers to ffltui.o(.text) for __aeabi_ui2f
    filter.o(i.biquadFilterInit) refers to fmul.o(.text) for __aeabi_fmul
    filter.o(i.biquadFilterInit) refers to fdiv.o(.text) for __aeabi_fdiv
    filter.o(i.biquadFilterInit) refers to sinf.o(i.sinf) for sinf
    filter.o(i.biquadFilterInit) refers to cosf.o(i.cosf) for cosf
    filter.o(i.biquadFilterInit) refers to fadd.o(.text) for __aeabi_fsub
    filter.o(i.biquadFilterInitLPF) refers to sqrtf.o(i.sqrtf) for sqrtf
    filter.o(i.biquadFilterInitLPF) refers to fdiv.o(.text) for __aeabi_fdiv
    filter.o(i.biquadFilterInitLPF) refers to filter.o(i.biquadFilterInit) for biquadFilterInit
    filter.o(i.pt1FilterApply) refers to fadd.o(.text) for __aeabi_fsub
    filter.o(i.pt1FilterApply) refers to fdiv.o(.text) for __aeabi_fdiv
    filter.o(i.pt1FilterApply) refers to fmul.o(.text) for __aeabi_fmul
    filter.o(i.pt1FilterApply4) refers to cfcmple.o(.text) for __aeabi_cfcmpeq
    filter.o(i.pt1FilterApply4) refers to filter.o(i.pt1FilterInit) for pt1FilterInit
    filter.o(i.pt1FilterApply4) refers to fadd.o(.text) for __aeabi_fsub
    filter.o(i.pt1FilterApply4) refers to fdiv.o(.text) for __aeabi_fdiv
    filter.o(i.pt1FilterApply4) refers to fmul.o(.text) for __aeabi_fmul
    filter.o(i.pt1FilterInit) refers to ffltui.o(.text) for __aeabi_ui2f
    filter.o(i.pt1FilterInit) refers to fmul.o(.text) for __aeabi_fmul
    filter.o(i.pt1FilterInit) refers to fdiv.o(.text) for __aeabi_fdiv
    mlib.o(i.acos_approx) refers to cfrcmple.o(.text) for __aeabi_cfrcmple
    mlib.o(i.acos_approx) refers to fmul.o(.text) for __aeabi_fmul
    mlib.o(i.acos_approx) refers to fadd.o(.text) for __aeabi_fadd
    mlib.o(i.acos_approx) refers to sqrtf.o(i.sqrtf) for sqrtf
    mlib.o(i.acos_approx) refers to cfcmple.o(.text) for __aeabi_cfcmple
    mlib.o(i.atan2_approx) refers to cfrcmple.o(.text) for __aeabi_cfrcmple
    mlib.o(i.atan2_approx) refers to cfcmple.o(.text) for __aeabi_cfcmpeq
    mlib.o(i.atan2_approx) refers to fdiv.o(.text) for __aeabi_fdiv
    mlib.o(i.atan2_approx) refers to fmul.o(.text) for __aeabi_fmul
    mlib.o(i.atan2_approx) refers to fadd.o(.text) for __aeabi_fadd
    mlib.o(i.constrain_float) refers to cfcmple.o(.text) for __aeabi_cfcmple
    mlib.o(i.constrain_float) refers to cfrcmple.o(.text) for __aeabi_cfrcmple
    mlib.o(i.cos_approx) refers to fadd.o(.text) for __aeabi_fadd
    mlib.o(i.cos_approx) refers to mlib.o(i.sin_approx) for sin_approx
    mlib.o(i.invSqrt) refers to fmul.o(.text) for __aeabi_fmul
    mlib.o(i.invSqrt) refers to fadd.o(.text) for __aeabi_frsub
    mlib.o(i.quickMedianFilter3) refers to fflti.o(.text) for __aeabi_i2f
    mlib.o(i.quickMedianFilter3) refers to ffixi.o(.text) for __aeabi_f2iz
    mlib.o(i.quickMedianFilter5) refers to fflti.o(.text) for __aeabi_i2f
    mlib.o(i.quickMedianFilter5) refers to ffixi.o(.text) for __aeabi_f2iz
    mlib.o(i.quickMedianFilter7) refers to fflti.o(.text) for __aeabi_i2f
    mlib.o(i.quickMedianFilter7) refers to ffixi.o(.text) for __aeabi_f2iz
    mlib.o(i.sin_approx) refers to ffixi.o(.text) for __aeabi_f2iz
    mlib.o(i.sin_approx) refers to fadd.o(.text) for __aeabi_fsub
    mlib.o(i.sin_approx) refers to cfrcmple.o(.text) for __aeabi_cfrcmple
    mlib.o(i.sin_approx) refers to cfcmple.o(.text) for __aeabi_cfcmple
    mlib.o(i.sin_approx) refers to fmul.o(.text) for __aeabi_fmul
    msp.o(i.msp) refers to uart.o(i.serial_read_rx_fifo) for serial_read_rx_fifo
    msp.o(i.msp) refers to iap.o(i.send_ack) for send_ack
    msp.o(i.msp) refers to iap.o(i.iap_for_app) for iap_for_app
    msp.o(i.msp) refers to decode.o(i.decode) for decode
    msp.o(i.msp) refers to memseta.o(.text) for __aeabi_memclr
    msp.o(i.msp) refers to uart.o(i.serial_available) for serial_available
    msp.o(i.msp) refers to iap.o(.data) for slot_timer
    msp.o(i.msp) refers to msp.o(.data) for receive_cnt
    msp.o(i.msp) refers to iap.o(.bss) for RX_buf
    mpu6050.o(i.mpu6050FindRevision) refers to i2c_soft.o(i.soft_i2c_buffer_read) for soft_i2c_buffer_read
    mpu6050.o(i.mpu6050FindRevision) refers to printfa.o(i.__0printf) for __2printf
    mpu6050.o(i.mpu6050FindRevision) refers to mpu6050.o(.data) for _mpu_half_resolution
    mpu6050.o(i.mpu6050_init) refers to ticks.o(i.delay_ms) for delay_ms
    mpu6050.o(i.mpu6050_init) refers to msp.o(i.msp) for msp
    mpu6050.o(i.mpu6050_init) refers to i2c_soft.o(i.soft_i2c_write_reg) for soft_i2c_write_reg
    mpu6050.o(i.mpu6050_init) refers to mpu6050.o(i.mpu6050FindRevision) for mpu6050FindRevision
    mpu6050.o(i.mpu6050_read) refers to i2c_soft.o(i.soft_i2c_buffer_read) for soft_i2c_buffer_read
    mpu6050.o(i.mpu6050_read) refers to mpu6050.o(.data) for accRaw
    mpu6050.o(i.mpu6050_test) refers to mpu6050.o(i.mpu6050_read) for mpu6050_read
    mpu6050.o(i.mpu6050_test) refers to printfa.o(i.__0printf) for __2printf
    mpu6050.o(i.mpu6050_test) refers to mpu6050.o(.data) for mpu6050TestTimer
    accgyro.o(i.acc_calbration) refers to iap.o(i.cfg_save_temp) for cfg_save_temp
    accgyro.o(i.acc_calbration) refers to accgyro.o(.data) for accCalInit
    accgyro.o(i.acc_calbration) refers to accgyro.o(.bss) for accSum
    accgyro.o(i.acc_calbration) refers to iap.o(.bss) for cfgTemp
    accgyro.o(i.acc_calbration) refers to main.o(.data) for powerupTimer
    accgyro.o(i.accgyro_init) refers to memseta.o(.text) for __aeabi_memclr4
    accgyro.o(i.accgyro_init) refers to filter.o(i.biquadFilterInitLPF) for biquadFilterInitLPF
    accgyro.o(i.accgyro_init) refers to filter.o(i.pt1FilterInit) for pt1FilterInit
    accgyro.o(i.accgyro_init) refers to accgyro.o(.bss) for accgyro
    accgyro.o(i.accgyro_init) refers to mpu6050.o(i.mpu6050_init) for mpu6050_init
    accgyro.o(i.accgyro_init) refers to mpu6050.o(i.mpu6050_read) for mpu6050_read
    accgyro.o(i.accgyro_init) refers to accgyro.o(.data) for acc_1G
    accgyro.o(i.accgyro_init) refers to iap.o(.bss) for cfgTemp
    accgyro.o(i.accgyro_test) refers to ticks.o(i.micros16) for micros16
    accgyro.o(i.accgyro_test) refers to dfltui.o(.text) for __aeabi_ui2d
    accgyro.o(i.accgyro_test) refers to dmul.o(.text) for __aeabi_dmul
    accgyro.o(i.accgyro_test) refers to d2f.o(.text) for __aeabi_d2f
    accgyro.o(i.accgyro_test) refers to cfrcmple.o(.text) for __aeabi_cfrcmple
    accgyro.o(i.accgyro_test) refers to accgyro.o(i.accgyro_update) for accgyro_update
    accgyro.o(i.accgyro_test) refers to printfa.o(i.__0printf) for __2printf
    accgyro.o(i.accgyro_test) refers to accgyro.o(.data) for previousTime
    accgyro.o(i.accgyro_test) refers to accgyro.o(.bss) for accgyro
    accgyro.o(i.accgyro_update) refers to alignment.o(i.apply_sensor_alignment) for apply_sensor_alignment
    accgyro.o(i.accgyro_update) refers to accgyro.o(i.gyro_calbration) for gyro_calbration
    accgyro.o(i.accgyro_update) refers to accgyro.o(i.acc_calbration) for acc_calbration
    accgyro.o(i.accgyro_update) refers to fflti.o(.text) for __aeabi_i2f
    accgyro.o(i.accgyro_update) refers to filter.o(i.biquadFilterApply) for biquadFilterApply
    accgyro.o(i.accgyro_update) refers to ffixi.o(.text) for __aeabi_f2iz
    accgyro.o(i.accgyro_update) refers to filter.o(i.pt1FilterApply) for pt1FilterApply
    accgyro.o(i.accgyro_update) refers to accgyro.o(.bss) for accgyro
    accgyro.o(i.gyro_calbration) refers to iap.o(i.cfg_save_temp) for cfg_save_temp
    accgyro.o(i.gyro_calbration) refers to accgyro.o(.data) for gyroCalInit
    accgyro.o(i.gyro_calbration) refers to accgyro.o(.bss) for gyroSum
    accgyro.o(i.gyro_calbration) refers to iap.o(.bss) for cfgTemp
    imu.o(i.from_euler) refers to fmul.o(.text) for __aeabi_fmul
    imu.o(i.from_euler) refers to cosf.o(i.cosf) for cosf
    imu.o(i.from_euler) refers to sinf.o(i.sinf) for sinf
    imu.o(i.from_euler) refers to fadd.o(.text) for __aeabi_fadd
    imu.o(i.imuCalculateAcceleration) refers to imu.o(i.to_euler) for to_euler
    imu.o(i.imuCalculateAcceleration) refers to imu.o(i.from_euler) for from_euler
    imu.o(i.imuCalculateAcceleration) refers to imu.o(i.imuComputeRotationMatrix) for imuComputeRotationMatrix
    imu.o(i.imuCalculateAcceleration) refers to fflti.o(.text) for __aeabi_i2f
    imu.o(i.imuCalculateAcceleration) refers to imu.o(i.imuTransformVectorBodyToEarth) for imuTransformVectorBodyToEarth
    imu.o(i.imuCalculateAcceleration) refers to fadd.o(.text) for __aeabi_fsub
    imu.o(i.imuCalculateAcceleration) refers to ffixi.o(.text) for __aeabi_f2iz
    imu.o(i.imuCalculateAcceleration) refers to mlib.o(i.applyDeadband) for applyDeadband
    imu.o(i.imuCalculateAcceleration) refers to accgyro.o(.bss) for accgyro
    imu.o(i.imuCalculateAcceleration) refers to accgyro.o(.data) for acc_1G
    imu.o(i.imuCalculateAcceleration) refers to altitude.o(.bss) for accSumZ
    imu.o(i.imuCalculateAcceleration) refers to altitude.o(.data) for accSumZTimer
    imu.o(i.imuCalculateEstimatedAttitude) refers to ticks.o(i.micros16) for micros16
    imu.o(i.imuCalculateEstimatedAttitude) refers to dfltui.o(.text) for __aeabi_ui2d
    imu.o(i.imuCalculateEstimatedAttitude) refers to dmul.o(.text) for __aeabi_dmul
    imu.o(i.imuCalculateEstimatedAttitude) refers to d2f.o(.text) for __aeabi_d2f
    imu.o(i.imuCalculateEstimatedAttitude) refers to cfrcmple.o(.text) for __aeabi_cfrcmple
    imu.o(i.imuCalculateEstimatedAttitude) refers to imu.o(i.imuIsAccelerometerHealthy) for imuIsAccelerometerHealthy
    imu.o(i.imuCalculateEstimatedAttitude) refers to fflti.o(.text) for __aeabi_i2f
    imu.o(i.imuCalculateEstimatedAttitude) refers to fmul.o(.text) for __aeabi_fmul
    imu.o(i.imuCalculateEstimatedAttitude) refers to imu.o(i.imuMahonyAHRSupdate) for imuMahonyAHRSupdate
    imu.o(i.imuCalculateEstimatedAttitude) refers to imu.o(i.imuUpdateEulerAngles) for imuUpdateEulerAngles
    imu.o(i.imuCalculateEstimatedAttitude) refers to imu.o(i.imuCalculateAcceleration) for imuCalculateAcceleration
    imu.o(i.imuCalculateEstimatedAttitude) refers to imu.o(.data) for previousIMUUpdateTime
    imu.o(i.imuCalculateEstimatedAttitude) refers to imu.o(.bss) for accSmooth
    imu.o(i.imuCalculateEstimatedAttitude) refers to accgyro.o(.bss) for accgyro
    imu.o(i.imuCalculateEstimatedAttitude) refers to accgyro.o(.data) for gyroScale
    imu.o(i.imuComputeRotationMatrix) refers to fmul.o(.text) for __aeabi_fmul
    imu.o(i.imuComputeRotationMatrix) refers to fadd.o(.text) for __aeabi_frsub
    imu.o(i.imuGetPGainScaleFactor) refers to imu.o(i.imuUseFastGains) for imuUseFastGains
    imu.o(i.imuIsAccelerometerHealthy) refers to imu.o(.bss) for accSmooth
    imu.o(i.imuIsAccelerometerHealthy) refers to accgyro.o(.data) for acc_1G
    imu.o(i.imuMahonyAHRSupdate) refers to fmul.o(.text) for __aeabi_fmul
    imu.o(i.imuMahonyAHRSupdate) refers to fadd.o(.text) for __aeabi_fadd
    imu.o(i.imuMahonyAHRSupdate) refers to sqrtf.o(i.sqrtf) for sqrtf
    imu.o(i.imuMahonyAHRSupdate) refers to cfrcmple.o(.text) for __aeabi_cfrcmple
    imu.o(i.imuMahonyAHRSupdate) refers to mlib.o(i.invSqrt) for invSqrt
    imu.o(i.imuMahonyAHRSupdate) refers to cfcmple.o(.text) for __aeabi_cfcmple
    imu.o(i.imuMahonyAHRSupdate) refers to imu.o(i.imuGetPGainScaleFactor) for imuGetPGainScaleFactor
    imu.o(i.imuMahonyAHRSupdate) refers to imu.o(i.imuComputeRotationMatrix) for imuComputeRotationMatrix
    imu.o(i.imuMahonyAHRSupdate) refers to imu.o(.bss) for rMat
    imu.o(i.imuMahonyAHRSupdate) refers to imu.o(.data) for imuRuntimeConfig
    imu.o(i.imuTransformVectorBodyToEarth) refers to fmul.o(.text) for __aeabi_fmul
    imu.o(i.imuTransformVectorBodyToEarth) refers to fadd.o(.text) for __aeabi_fadd
    imu.o(i.imuUpdateEulerAngles) refers to mlib.o(i.atan2_approx) for atan2_approx
    imu.o(i.imuUpdateEulerAngles) refers to fmul.o(.text) for __aeabi_fmul
    imu.o(i.imuUpdateEulerAngles) refers to ffixi.o(.text) for __aeabi_f2iz
    imu.o(i.imuUpdateEulerAngles) refers to mlib.o(i.acos_approx) for acos_approx
    imu.o(i.imuUpdateEulerAngles) refers to fadd.o(.text) for __aeabi_frsub
    imu.o(i.imuUpdateEulerAngles) refers to imu.o(.bss) for rMat
    imu.o(i.imuUpdateEulerAngles) refers to imu.o(.data) for angle
    imu.o(i.imuUseFastGains) refers to main.o(.data) for powerupTimer
    imu.o(i.imu_init) refers to imu.o(i.imuComputeRotationMatrix) for imuComputeRotationMatrix
    imu.o(i.imu_init) refers to imu.o(.data) for imuRuntimeConfig
    imu.o(i.imu_init) refers to imu.o(.bss) for rMat
    imu.o(i.imu_test) refers to ticks.o(i.micros16) for micros16
    imu.o(i.imu_test) refers to dfltui.o(.text) for __aeabi_ui2d
    imu.o(i.imu_test) refers to dmul.o(.text) for __aeabi_dmul
    imu.o(i.imu_test) refers to d2f.o(.text) for __aeabi_d2f
    imu.o(i.imu_test) refers to cfrcmple.o(.text) for __aeabi_cfrcmple
    imu.o(i.imu_test) refers to accgyro.o(i.accgyro_update) for accgyro_update
    imu.o(i.imu_test) refers to imu.o(i.imuCalculateEstimatedAttitude) for imuCalculateEstimatedAttitude
    imu.o(i.imu_test) refers to imu.o(.data) for previousTime
    imu.o(i.to_euler) refers to fmul.o(.text) for __aeabi_fmul
    imu.o(i.to_euler) refers to fadd.o(.text) for __aeabi_fadd
    imu.o(i.to_euler) refers to atan2f.o(i.atan2f) for atan2f
    imu.o(i.to_euler) refers to mlib.o(i.sin_approx) for sin_approx
    imu.o(i.to_euler) refers to imu.o(.data) for q2
    barometer.o(i.baro_init) refers to spl06.o(i.spl06Detect) for spl06Detect
    barometer.o(i.baro_init) refers to barometer.o(.bss) for baro
    barometer.o(i.baro_init) refers to barometer.o(.data) for baroSensorReady
    barometer.o(i.baro_test) refers to barometer.o(i.baro_update) for baro_update
    barometer.o(i.baro_test) refers to fflti.o(.text) for __aeabi_i2f
    barometer.o(i.baro_test) refers to fdiv.o(.text) for __aeabi_fdiv
    barometer.o(i.baro_test) refers to powf.o(i.powf) for powf
    barometer.o(i.baro_test) refers to fadd.o(.text) for __aeabi_frsub
    barometer.o(i.baro_test) refers to fmul.o(.text) for __aeabi_fmul
    barometer.o(i.baro_test) refers to ffixi.o(.text) for __aeabi_f2iz
    barometer.o(i.baro_test) refers to printfa.o(i.__0printf) for __2printf
    barometer.o(i.baro_test) refers to main.o(.data) for printTestTimer
    barometer.o(i.baro_test) refers to barometer.o(.data) for baroPressure
    barometer.o(i.baro_update) refers to barometer.o(.data) for baroSensorReady
    barometer.o(i.baro_update) refers to barometer.o(.bss) for baro
    spl06.o(i.deviceDetect) refers to ticks.o(i.delay_ms) for delay_ms
    spl06.o(i.deviceDetect) refers to i2c_soft.o(i.soft_i2c_read_reg) for soft_i2c_read_reg
    spl06.o(i.read_calibration_coefficients) refers to i2c_soft.o(i.soft_i2c_read_reg) for soft_i2c_read_reg
    spl06.o(i.read_calibration_coefficients) refers to i2c_soft.o(i.soft_i2c_buffer_read) for soft_i2c_buffer_read
    spl06.o(i.read_calibration_coefficients) refers to spl06.o(.bss) for spl06_cal
    spl06.o(i.spl06Detect) refers to spl06.o(i.deviceDetect) for deviceDetect
    spl06.o(i.spl06Detect) refers to spl06.o(i.read_calibration_coefficients) for read_calibration_coefficients
    spl06.o(i.spl06Detect) refers to spl06.o(i.spl06_configure_measurements) for spl06_configure_measurements
    spl06.o(i.spl06Detect) refers to printfa.o(i.__0printf) for __2printf
    spl06.o(i.spl06Detect) refers to lrintf.o(i.lrintf) for lrintf
    spl06.o(i.spl06Detect) refers to spl06.o(i.spl06_read_temperature) for spl06_read_temperature
    spl06.o(i.spl06Detect) refers to spl06.o(i.spl06_start_temperature_measurement) for spl06_start_temperature_measurement
    spl06.o(i.spl06Detect) refers to spl06.o(i.spl06_start_pressure_measurement) for spl06_start_pressure_measurement
    spl06.o(i.spl06Detect) refers to spl06.o(i.spl06_read_pressure) for spl06_read_pressure
    spl06.o(i.spl06Detect) refers to spl06.o(i.spl06_calculate) for spl06_calculate
    spl06.o(i.spl06_calculate) refers to spl06.o(i.spl06_compensate_pressure) for spl06_compensate_pressure
    spl06.o(i.spl06_calculate) refers to lrintf.o(i.lrintf) for lrintf
    spl06.o(i.spl06_calculate) refers to spl06.o(i.spl06_compensate_temperature) for spl06_compensate_temperature
    spl06.o(i.spl06_calculate) refers to fmul.o(.text) for __aeabi_fmul
    spl06.o(i.spl06_calculate) refers to spl06.o(.data) for spl06_temperature_raw
    spl06.o(i.spl06_compensate_pressure) refers to spl06.o(i.spl06_raw_value_scale_factor) for spl06_raw_value_scale_factor
    spl06.o(i.spl06_compensate_pressure) refers to fflti.o(.text) for __aeabi_i2f
    spl06.o(i.spl06_compensate_pressure) refers to fdiv.o(.text) for __aeabi_fdiv
    spl06.o(i.spl06_compensate_pressure) refers to fmul.o(.text) for __aeabi_fmul
    spl06.o(i.spl06_compensate_pressure) refers to fadd.o(.text) for __aeabi_fadd
    spl06.o(i.spl06_compensate_pressure) refers to spl06.o(.bss) for spl06_cal
    spl06.o(i.spl06_compensate_temperature) refers to spl06.o(i.spl06_raw_value_scale_factor) for spl06_raw_value_scale_factor
    spl06.o(i.spl06_compensate_temperature) refers to fflti.o(.text) for __aeabi_i2f
    spl06.o(i.spl06_compensate_temperature) refers to fdiv.o(.text) for __aeabi_fdiv
    spl06.o(i.spl06_compensate_temperature) refers to fmul.o(.text) for __aeabi_fmul
    spl06.o(i.spl06_compensate_temperature) refers to fadd.o(.text) for __aeabi_fadd
    spl06.o(i.spl06_compensate_temperature) refers to spl06.o(.bss) for spl06_cal
    spl06.o(i.spl06_configure_measurements) refers to spl06.o(i.spl06_samples_to_cfg_reg_value) for spl06_samples_to_cfg_reg_value
    spl06.o(i.spl06_configure_measurements) refers to i2c_soft.o(i.soft_i2c_write_reg) for soft_i2c_write_reg
    spl06.o(i.spl06_read_pressure) refers to i2c_soft.o(i.soft_i2c_buffer_read) for soft_i2c_buffer_read
    spl06.o(i.spl06_read_pressure) refers to spl06.o(.data) for spl06_pressure_raw
    spl06.o(i.spl06_read_temperature) refers to i2c_soft.o(i.soft_i2c_buffer_read) for soft_i2c_buffer_read
    spl06.o(i.spl06_read_temperature) refers to spl06.o(.data) for spl06_temperature_raw
    spl06.o(i.spl06_start_pressure_measurement) refers to i2c_soft.o(i.soft_i2c_write_reg) for soft_i2c_write_reg
    spl06.o(i.spl06_start_temperature_measurement) refers to i2c_soft.o(i.soft_i2c_write_reg) for soft_i2c_write_reg
    opflow.o(i.getEstimatedPosition) refers to fmul.o(.text) for __aeabi_fmul
    opflow.o(i.getEstimatedPosition) refers to fadd.o(.text) for __aeabi_fadd
    opflow.o(i.getEstimatedPosition) refers to ffixi.o(.text) for __aeabi_f2iz
    opflow.o(i.getEstimatedPosition) refers to mlib.o(i.constrain) for constrain
    opflow.o(i.getEstimatedPosition) refers to fflti.o(.text) for __aeabi_i2f
    opflow.o(i.getEstimatedPosition) refers to cfrcmple.o(.text) for __aeabi_cfrcmple
    opflow.o(i.getEstimatedPosition) refers to cfcmple.o(.text) for __aeabi_cfcmple
    opflow.o(i.getEstimatedPosition) refers to fdiv.o(.text) for __aeabi_fdiv
    opflow.o(i.getEstimatedPosition) refers to fc.o(.data) for fc
    opflow.o(i.getEstimatedPosition) refers to opflow.o(.data) for pixel_flow_distance
    opflow.o(i.getEstimatedPosition) refers to altitude.o(.bss) for distanceGlobal
    opflow.o(i.getEstimatedPosition) refers to decode.o(.data) for rcCommand
    opflow.o(i.opflow_init) refers to uart.o(i.opflow_uart_init) for opflow_uart_init
    opflow.o(i.opflow_init) refers to opflow.o(.data) for opflowUartIndex
    opflow.o(i.opticalflow_ctrl) refers to opflow.o(i.opticalflow_update) for opticalflow_update
    opflow.o(i.opticalflow_ctrl) refers to opflow.o(i.getEstimatedPosition) for getEstimatedPosition
    opflow.o(i.opticalflow_ctrl) refers to opflow.o(.data) for opticalflowCtrlTimer
    opflow.o(i.opticalflow_update) refers to uart.o(i.opflow_uart_available) for opflow_uart_available
    opflow.o(i.opticalflow_update) refers to uart.o(i.opflow_uart_read_rx_fifo) for opflow_uart_read_rx_fifo
    opflow.o(i.opticalflow_update) refers to fflti.o(.text) for __aeabi_i2f
    opflow.o(i.opticalflow_update) refers to fmul.o(.text) for __aeabi_fmul
    opflow.o(i.opticalflow_update) refers to mlib.o(i.constrain_float) for constrain_float
    opflow.o(i.opticalflow_update) refers to fadd.o(.text) for __aeabi_fadd
    opflow.o(i.opticalflow_update) refers to fdiv.o(.text) for __aeabi_fdiv
    opflow.o(i.opticalflow_update) refers to ticks.o(i.micros16) for micros16
    opflow.o(i.opticalflow_update) refers to dfltui.o(.text) for __aeabi_ui2d
    opflow.o(i.opticalflow_update) refers to dmul.o(.text) for __aeabi_dmul
    opflow.o(i.opticalflow_update) refers to d2f.o(.text) for __aeabi_d2f
    opflow.o(i.opticalflow_update) refers to mlib.o(i.max) for max
    opflow.o(i.opticalflow_update) refers to mlib.o(i.constrain) for constrain
    opflow.o(i.opticalflow_update) refers to opflow.o(.bss) for opflowUartBuf
    opflow.o(i.opticalflow_update) refers to opflow.o(.data) for opflowUartIndex
    opflow.o(i.opticalflow_update) refers to altitude.o(.data) for EstAlt
    altitude.o(i.altitude_baro_update) refers to barometer.o(i.baro_update) for baro_update
    altitude.o(i.altitude_baro_update) refers to altitude.o(i.applyBarometerMedianFilter) for applyBarometerMedianFilter
    altitude.o(i.altitude_baro_update) refers to fflti.o(.text) for __aeabi_i2f
    altitude.o(i.altitude_baro_update) refers to fdiv.o(.text) for __aeabi_fdiv
    altitude.o(i.altitude_baro_update) refers to ffixi.o(.text) for __aeabi_f2iz
    altitude.o(i.altitude_baro_update) refers to powf.o(i.powf) for powf
    altitude.o(i.altitude_baro_update) refers to fadd.o(.text) for __aeabi_frsub
    altitude.o(i.altitude_baro_update) refers to fmul.o(.text) for __aeabi_fmul
    altitude.o(i.altitude_baro_update) refers to mlib.o(i.constrain) for constrain
    altitude.o(i.altitude_baro_update) refers to fc.o(.data) for fc
    altitude.o(i.altitude_baro_update) refers to altitude.o(.data) for baroHistIdx
    altitude.o(i.altitude_baro_update) refers to barometer.o(.data) for baroPressure
    altitude.o(i.altitude_baro_update) refers to altitude.o(.bss) for baroHistTab
    altitude.o(i.altitude_ctrl) refers to altitude.o(i.altitude_baro_update) for altitude_baro_update
    altitude.o(i.altitude_ctrl) refers to altitude.o(i.getEstimatedAltitude) for getEstimatedAltitude
    altitude.o(i.altitude_ctrl) refers to altitude.o(.data) for altitudeCtrlTimer
    altitude.o(i.applyBarometerMedianFilter) refers to mlib.o(i.quickMedianFilter5) for quickMedianFilter5
    altitude.o(i.applyBarometerMedianFilter) refers to altitude.o(.data) for currentFilterSampleIndex
    altitude.o(i.applyBarometerMedianFilter) refers to altitude.o(.bss) for barometerFilterSamples
    altitude.o(i.getEstimatedAltitude) refers to mlib.o(i.max) for max
    altitude.o(i.getEstimatedAltitude) refers to ticks.o(i.micros16) for micros16
    altitude.o(i.getEstimatedAltitude) refers to dfltui.o(.text) for __aeabi_ui2d
    altitude.o(i.getEstimatedAltitude) refers to dmul.o(.text) for __aeabi_dmul
    altitude.o(i.getEstimatedAltitude) refers to d2f.o(.text) for __aeabi_d2f
    altitude.o(i.getEstimatedAltitude) refers to fflti.o(.text) for __aeabi_i2f
    altitude.o(i.getEstimatedAltitude) refers to fmul.o(.text) for __aeabi_fmul
    altitude.o(i.getEstimatedAltitude) refers to fadd.o(.text) for __aeabi_fadd
    altitude.o(i.getEstimatedAltitude) refers to ffixi.o(.text) for __aeabi_f2iz
    altitude.o(i.getEstimatedAltitude) refers to mlib.o(i.constrain_float) for constrain_float
    altitude.o(i.getEstimatedAltitude) refers to mlib.o(i.constrain) for constrain
    altitude.o(i.getEstimatedAltitude) refers to cfrcmple.o(.text) for __aeabi_cfrcmple
    altitude.o(i.getEstimatedAltitude) refers to cfcmple.o(.text) for __aeabi_cfcmple
    altitude.o(i.getEstimatedAltitude) refers to imu.o(.data) for angle
    altitude.o(i.getEstimatedAltitude) refers to altitude.o(.data) for tiltAngle
    altitude.o(i.getEstimatedAltitude) refers to altitude.o(.bss) for velGlobal
    altitude.o(i.getEstimatedAltitude) refers to fc.o(.data) for fc
    altitude.o(i.getEstimatedAltitude) refers to decode.o(.data) for setVelocity
    decode.o(i.annexCode) refers to mlib.o(i.constrain) for constrain
    decode.o(i.annexCode) refers to mlib.o(i.applyDeadband) for applyDeadband
    decode.o(i.annexCode) refers to fc.o(.data) for fc
    decode.o(i.annexCode) refers to decode.o(.bss) for fcCmd
    decode.o(i.annexCode) refers to decode.o(.data) for setVelocity
    decode.o(i.annexCode) refers to accgyro.o(.bss) for accgyro
    decode.o(i.decode) refers to decode.o(.bss) for fcCmd
    decode.o(i.decode) refers to fc.o(.data) for fc
    decode.o(i.decode_test) refers to printfa.o(i.__0printf) for __2printf
    decode.o(i.decode_test) refers to main.o(.data) for printTestTimer
    decode.o(i.decode_test) refers to decode.o(.data) for rcCommandTrim
    decode.o(i.decode_test) refers to decode.o(.bss) for fcCmd
    fc.o(i.fc_init) refers to fc.o(.data) for fc
    fc.o(i.fc_init) refers to pid.o(.bss) for pidconf
    fc.o(i.flight_ctrl) refers to ticks.o(i.micros16) for micros16
    fc.o(i.flight_ctrl) refers to dfltui.o(.text) for __aeabi_ui2d
    fc.o(i.flight_ctrl) refers to dmul.o(.text) for __aeabi_dmul
    fc.o(i.flight_ctrl) refers to d2f.o(.text) for __aeabi_d2f
    fc.o(i.flight_ctrl) refers to cfrcmple.o(.text) for __aeabi_cfrcmple
    fc.o(i.flight_ctrl) refers to accgyro.o(i.accgyro_update) for accgyro_update
    fc.o(i.flight_ctrl) refers to imu.o(i.imuCalculateEstimatedAttitude) for imuCalculateEstimatedAttitude
    fc.o(i.flight_ctrl) refers to pid.o(i.pid) for pid
    fc.o(i.flight_ctrl) refers to motor.o(i.motor_pwm_output) for motor_pwm_output
    fc.o(i.flight_ctrl) refers to fc.o(.data) for previousIMUUpdateTime
    pid.o(i.pid) refers to fflti.o(.text) for __aeabi_i2f
    pid.o(i.pid) refers to fmul.o(.text) for __aeabi_fmul
    pid.o(i.pid) refers to fadd.o(.text) for __aeabi_fadd
    pid.o(i.pid) refers to mlib.o(i.constrain) for constrain
    pid.o(i.pid) refers to ffixi.o(.text) for __aeabi_f2iz
    pid.o(i.pid) refers to cfcmple.o(.text) for __aeabi_cfcmple
    pid.o(i.pid) refers to cfrcmple.o(.text) for __aeabi_cfrcmple
    pid.o(i.pid) refers to fdiv.o(.text) for __aeabi_fdiv
    pid.o(i.pid) refers to pid.o(.bss) for pidconf
    pid.o(i.pid) refers to accgyro.o(.bss) for accgyro
    pid.o(i.pid) refers to accgyro.o(.data) for gyroScale
    pid.o(i.pid) refers to opflow.o(.data) for optGyro
    pid.o(i.pid) refers to imu.o(.data) for angle
    pid.o(i.pid) refers to decode.o(.data) for rcCommand
    pid.o(i.pid) refers to fc.o(.data) for fc
    pid.o(i.pid) refers to motor.o(.data) for motorPWMValue
    motor.o(i.motor_init) refers to hw_timer.o(i.hw_tim3_init) for hw_tim3_init
    motor.o(i.motor_init) refers to motor.o(.data) for motorPWMValue
    motor.o(i.motor_pwm_output) refers to stm32f10x_tim.o(i.TIM_SetCompare1) for TIM_SetCompare1
    motor.o(i.motor_pwm_output) refers to stm32f10x_tim.o(i.TIM_SetCompare2) for TIM_SetCompare2
    motor.o(i.motor_pwm_output) refers to stm32f10x_tim.o(i.TIM_SetCompare3) for TIM_SetCompare3
    motor.o(i.motor_pwm_output) refers to stm32f10x_tim.o(i.TIM_SetCompare4) for TIM_SetCompare4
    motor.o(i.motor_pwm_output) refers to motor.o(.data) for motorPWMValue
    motor.o(i.motor_pwm_output_duty25) refers to motor.o(i.motor_pwm_output) for motor_pwm_output
    motor.o(i.motor_pwm_output_duty25) refers to motor.o(.data) for motorPWMValue
    motor.o(i.motor_test_rc) refers to motor.o(i.motor_pwm_output) for motor_pwm_output
    motor.o(i.motor_test_rc) refers to decode.o(.data) for rcCommand
    motor.o(i.motor_test_rc) refers to motor.o(.data) for motorPWMValue
    atan2f.o(i.__softfp_atan2f) refers (Special) to iusefp.o(.text) for __I$use$fp
    atan2f.o(i.__softfp_atan2f) refers to atan2f.o(i.atan2f) for atan2f
    atan2f.o(i.atan2f) refers (Special) to iusefp.o(.text) for __I$use$fp
    atan2f.o(i.atan2f) refers to fdiv.o(.text) for __aeabi_fdiv
    atan2f.o(i.atan2f) refers to fpclassifyf.o(i.__ARM_fpclassifyf) for __ARM_fpclassifyf
    atan2f.o(i.atan2f) refers to funder.o(i.__mathlib_flt_underflow) for __mathlib_flt_underflow
    atan2f.o(i.atan2f) refers to fadd.o(.text) for __aeabi_fsub
    atan2f.o(i.atan2f) refers to fmul.o(.text) for __aeabi_fmul
    atan2f.o(i.atan2f) refers to funder.o(i.__mathlib_flt_infnan2) for __mathlib_flt_infnan2
    atan2f_x.o(i.____softfp_atan2f$lsc) refers (Special) to iusefp.o(.text) for __I$use$fp
    atan2f_x.o(i.____softfp_atan2f$lsc) refers to atan2f_x.o(i.__atan2f$lsc) for __atan2f$lsc
    atan2f_x.o(i.__atan2f$lsc) refers (Special) to iusefp.o(.text) for __I$use$fp
    atan2f_x.o(i.__atan2f$lsc) refers to fdiv.o(.text) for __aeabi_fdiv
    atan2f_x.o(i.__atan2f$lsc) refers to fadd.o(.text) for __aeabi_fsub
    atan2f_x.o(i.__atan2f$lsc) refers to fmul.o(.text) for __aeabi_fmul
    atan2f_x.o(i.__atan2f$lsc) refers to funder.o(i.__mathlib_flt_infnan2) for __mathlib_flt_infnan2
    atan2f_x.o(i.__atan2f$lsc) refers to errno.o(i.__set_errno) for __set_errno
    cosf.o(i.__softfp_cosf) refers (Special) to iusefp.o(.text) for __I$use$fp
    cosf.o(i.__softfp_cosf) refers to cosf.o(i.cosf) for cosf
    cosf.o(i.cosf) refers (Special) to iusefp.o(.text) for __I$use$fp
    cosf.o(i.cosf) refers to fmul.o(.text) for __aeabi_fmul
    cosf.o(i.cosf) refers to frnd.o(.text) for _frnd
    cosf.o(i.cosf) refers to ffixi.o(.text) for __aeabi_f2iz
    cosf.o(i.cosf) refers to fadd.o(.text) for __aeabi_frsub
    cosf.o(i.cosf) refers to rredf.o(i.__mathlib_rredf2) for __mathlib_rredf2
    cosf.o(i.cosf) refers to errno.o(i.__set_errno) for __set_errno
    cosf.o(i.cosf) refers to funder.o(i.__mathlib_flt_invalid) for __mathlib_flt_invalid
    cosf.o(i.cosf) refers to funder.o(i.__mathlib_flt_infnan) for __mathlib_flt_infnan
    cosf_x.o(i.____softfp_cosf$lsc) refers (Special) to iusefp.o(.text) for __I$use$fp
    cosf_x.o(i.____softfp_cosf$lsc) refers to cosf_x.o(i.__cosf$lsc) for __cosf$lsc
    cosf_x.o(i.__cosf$lsc) refers (Special) to iusefp.o(.text) for __I$use$fp
    cosf_x.o(i.__cosf$lsc) refers to fmul.o(.text) for __aeabi_fmul
    cosf_x.o(i.__cosf$lsc) refers to frnd.o(.text) for _frnd
    cosf_x.o(i.__cosf$lsc) refers to ffixi.o(.text) for __aeabi_f2iz
    cosf_x.o(i.__cosf$lsc) refers to fadd.o(.text) for __aeabi_frsub
    cosf_x.o(i.__cosf$lsc) refers to rredf.o(i.__mathlib_rredf2) for __mathlib_rredf2
    cosf_x.o(i.__cosf$lsc) refers to errno.o(i.__set_errno) for __set_errno
    cosf_x.o(i.__cosf$lsc) refers to funder.o(i.__mathlib_flt_infnan) for __mathlib_flt_infnan
    powf.o(i.__softfp_powf) refers (Special) to iusefp.o(.text) for __I$use$fp
    powf.o(i.__softfp_powf) refers to powf.o(i.powf) for powf
    powf.o(i.powf) refers (Special) to iusefp.o(.text) for __I$use$fp
    powf.o(i.powf) refers to fflti.o(.text) for __aeabi_i2f
    powf.o(i.powf) refers to fscalb.o(.text) for __ARM_scalbnf
    powf.o(i.powf) refers to fadd.o(.text) for __aeabi_fadd
    powf.o(i.powf) refers to fdiv.o(.text) for __aeabi_fdiv
    powf.o(i.powf) refers to fmul.o(.text) for __aeabi_fmul
    powf.o(i.powf) refers to fpstat.o(.text) for __ieee_status
    powf.o(i.powf) refers to ffixir.o(.text) for _ffix_r
    powf.o(i.powf) refers to fpclassifyf.o(i.__ARM_fpclassifyf) for __ARM_fpclassifyf
    powf.o(i.powf) refers to funder.o(i.__mathlib_flt_underflow) for __mathlib_flt_underflow
    powf.o(i.powf) refers to errno.o(i.__set_errno) for __set_errno
    powf.o(i.powf) refers to funder.o(i.__mathlib_flt_overflow) for __mathlib_flt_overflow
    powf.o(i.powf) refers to funder.o(i.__mathlib_flt_invalid) for __mathlib_flt_invalid
    powf.o(i.powf) refers to powf.o(.constdata) for .constdata
    powf.o(i.powf) refers to funder.o(i.__mathlib_flt_infnan2) for __mathlib_flt_infnan2
    powf.o(i.powf) refers to funder.o(i.__mathlib_flt_divzero) for __mathlib_flt_divzero
    powf.o(.constdata) refers (Special) to iusefp.o(.text) for __I$use$fp
    powf_x.o(i.____softfp_powf$lsc) refers (Special) to iusefp.o(.text) for __I$use$fp
    powf_x.o(i.____softfp_powf$lsc) refers to powf_x.o(i.__powf$lsc) for __powf$lsc
    powf_x.o(i.__powf$lsc) refers (Special) to iusefp.o(.text) for __I$use$fp
    powf_x.o(i.__powf$lsc) refers to fflti.o(.text) for __aeabi_i2f
    powf_x.o(i.__powf$lsc) refers to fscalb.o(.text) for __ARM_scalbnf
    powf_x.o(i.__powf$lsc) refers to fadd.o(.text) for __aeabi_fadd
    powf_x.o(i.__powf$lsc) refers to fdiv.o(.text) for __aeabi_fdiv
    powf_x.o(i.__powf$lsc) refers to fmul.o(.text) for __aeabi_fmul
    powf_x.o(i.__powf$lsc) refers to fpstat.o(.text) for __ieee_status
    powf_x.o(i.__powf$lsc) refers to ffixir.o(.text) for _ffix_r
    powf_x.o(i.__powf$lsc) refers to errno.o(i.__set_errno) for __set_errno
    powf_x.o(i.__powf$lsc) refers to powf_x.o(.constdata) for .constdata
    powf_x.o(i.__powf$lsc) refers to funder.o(i.__mathlib_flt_infnan2) for __mathlib_flt_infnan2
    powf_x.o(.constdata) refers (Special) to iusefp.o(.text) for __I$use$fp
    sinf.o(i.__softfp_sinf) refers (Special) to iusefp.o(.text) for __I$use$fp
    sinf.o(i.__softfp_sinf) refers to sinf.o(i.sinf) for sinf
    sinf.o(i.sinf) refers (Special) to iusefp.o(.text) for __I$use$fp
    sinf.o(i.sinf) refers to fmul.o(.text) for __aeabi_fmul
    sinf.o(i.sinf) refers to frnd.o(.text) for _frnd
    sinf.o(i.sinf) refers to ffixi.o(.text) for __aeabi_f2iz
    sinf.o(i.sinf) refers to fadd.o(.text) for __aeabi_frsub
    sinf.o(i.sinf) refers to rredf.o(i.__mathlib_rredf2) for __mathlib_rredf2
    sinf.o(i.sinf) refers to fpclassifyf.o(i.__ARM_fpclassifyf) for __ARM_fpclassifyf
    sinf.o(i.sinf) refers to funder.o(i.__mathlib_flt_underflow) for __mathlib_flt_underflow
    sinf.o(i.sinf) refers to errno.o(i.__set_errno) for __set_errno
    sinf.o(i.sinf) refers to funder.o(i.__mathlib_flt_invalid) for __mathlib_flt_invalid
    sinf.o(i.sinf) refers to funder.o(i.__mathlib_flt_infnan) for __mathlib_flt_infnan
    sinf_x.o(i.____softfp_sinf$lsc) refers (Special) to iusefp.o(.text) for __I$use$fp
    sinf_x.o(i.____softfp_sinf$lsc) refers to sinf_x.o(i.__sinf$lsc) for __sinf$lsc
    sinf_x.o(i.__sinf$lsc) refers (Special) to iusefp.o(.text) for __I$use$fp
    sinf_x.o(i.__sinf$lsc) refers to fmul.o(.text) for __aeabi_fmul
    sinf_x.o(i.__sinf$lsc) refers to frnd.o(.text) for _frnd
    sinf_x.o(i.__sinf$lsc) refers to ffixi.o(.text) for __aeabi_f2iz
    sinf_x.o(i.__sinf$lsc) refers to fadd.o(.text) for __aeabi_frsub
    sinf_x.o(i.__sinf$lsc) refers to rredf.o(i.__mathlib_rredf2) for __mathlib_rredf2
    sinf_x.o(i.__sinf$lsc) refers to errno.o(i.__set_errno) for __set_errno
    sinf_x.o(i.__sinf$lsc) refers to funder.o(i.__mathlib_flt_infnan) for __mathlib_flt_infnan
    sqrtf.o(i.__softfp_sqrtf) refers (Special) to iusefp.o(.text) for __I$use$fp
    sqrtf.o(i.__softfp_sqrtf) refers to fsqrt.o(.text) for _fsqrt
    sqrtf.o(i.__softfp_sqrtf) refers to errno.o(i.__set_errno) for __set_errno
    sqrtf.o(i.sqrtf) refers (Special) to iusefp.o(.text) for __I$use$fp
    sqrtf.o(i.sqrtf) refers to fsqrt.o(.text) for _fsqrt
    sqrtf.o(i.sqrtf) refers to errno.o(i.__set_errno) for __set_errno
    sqrtf_x.o(i.____softfp_sqrtf$lsc) refers (Special) to iusefp.o(.text) for __I$use$fp
    sqrtf_x.o(i.____softfp_sqrtf$lsc) refers to errno.o(i.__set_errno) for __set_errno
    sqrtf_x.o(i.____softfp_sqrtf$lsc) refers to fsqrt.o(.text) for _fsqrt
    sqrtf_x.o(i.__sqrtf$lsc) refers (Special) to iusefp.o(.text) for __I$use$fp
    sqrtf_x.o(i.__sqrtf$lsc) refers to errno.o(i.__set_errno) for __set_errno
    sqrtf_x.o(i.__sqrtf$lsc) refers to fsqrt.o(.text) for _fsqrt
    lrintf.o(i.lrintf) refers (Special) to iusefp.o(.text) for __I$use$fp
    lrintf.o(i.lrintf) refers to ffixir.o(.text) for _ffix_r
    lrintf.o(i.lrintf) refers to frnd.o(.text) for _frnd
    lrintf.o(i.lrintf) refers to fflti.o(.text) for __aeabi_i2f
    lrintf.o(i.lrintf) refers to cfcmple.o(.text) for __aeabi_cfcmpeq
    lrintf.o(i.lrintf) refers to errno.o(i.__set_errno) for __set_errno
    lrintf_x.o(i.__lrintf$lsc) refers (Special) to iusefp.o(.text) for __I$use$fp
    lrintf_x.o(i.__lrintf$lsc) refers to ffixir.o(.text) for _ffix_r
    entry.o(.ARM.Collect$$$$00000000) refers (Special) to entry10a.o(.ARM.Collect$$$$0000000D) for __rt_final_cpp
    entry.o(.ARM.Collect$$$$00000000) refers (Special) to entry11a.o(.ARM.Collect$$$$0000000F) for __rt_final_exit
    entry.o(.ARM.Collect$$$$00000000) refers (Special) to entry7b.o(.ARM.Collect$$$$00000008) for _main_clock
    entry.o(.ARM.Collect$$$$00000000) refers (Special) to entry8b.o(.ARM.Collect$$$$0000000A) for _main_cpp_init
    entry.o(.ARM.Collect$$$$00000000) refers (Special) to entry9a.o(.ARM.Collect$$$$0000000B) for _main_init
    entry.o(.ARM.Collect$$$$00000000) refers (Special) to entry5.o(.ARM.Collect$$$$00000004) for _main_scatterload
    entry.o(.ARM.Collect$$$$00000000) refers (Special) to entry2.o(.ARM.Collect$$$$00000001) for _main_stk
    printfb.o(i.__0fprintf$bare) refers to printfb.o(i._printf_core) for _printf_core
    printfb.o(i.__0fprintf$bare) refers to uart.o(i.fputc) for fputc
    printfb.o(i.__0printf$bare) refers to printfb.o(i._printf_core) for _printf_core
    printfb.o(i.__0printf$bare) refers to uart.o(i.fputc) for fputc
    printfb.o(i.__0printf$bare) refers to stdout.o(.data) for __stdout
    printfb.o(i.__0snprintf$bare) refers to printfb.o(i._printf_core) for _printf_core
    printfb.o(i.__0snprintf$bare) refers to printfb.o(i._snputc) for _snputc
    printfb.o(i.__0sprintf$bare) refers to printfb.o(i._printf_core) for _printf_core
    printfb.o(i.__0sprintf$bare) refers to printfb.o(i._sputc) for _sputc
    printfb.o(i.__0vfprintf$bare) refers to printfb.o(i._printf_core) for _printf_core
    printfb.o(i.__0vfprintf$bare) refers to uart.o(i.fputc) for fputc
    printfb.o(i.__0vprintf$bare) refers to printfb.o(i._printf_core) for _printf_core
    printfb.o(i.__0vprintf$bare) refers to uart.o(i.fputc) for fputc
    printfb.o(i.__0vprintf$bare) refers to stdout.o(.data) for __stdout
    printfb.o(i.__0vsnprintf$bare) refers to printfb.o(i._printf_core) for _printf_core
    printfb.o(i.__0vsnprintf$bare) refers to printfb.o(i._snputc) for _snputc
    printfb.o(i.__0vsprintf$bare) refers to printfb.o(i._printf_core) for _printf_core
    printfb.o(i.__0vsprintf$bare) refers to printfb.o(i._sputc) for _sputc
    printf0.o(i.__0fprintf$0) refers to printf0.o(i._printf_core) for _printf_core
    printf0.o(i.__0fprintf$0) refers to uart.o(i.fputc) for fputc
    printf0.o(i.__0printf$0) refers to printf0.o(i._printf_core) for _printf_core
    printf0.o(i.__0printf$0) refers to uart.o(i.fputc) for fputc
    printf0.o(i.__0printf$0) refers to stdout.o(.data) for __stdout
    printf0.o(i.__0snprintf$0) refers to printf0.o(i._printf_core) for _printf_core
    printf0.o(i.__0snprintf$0) refers to printf0.o(i._snputc) for _snputc
    printf0.o(i.__0sprintf$0) refers to printf0.o(i._printf_core) for _printf_core
    printf0.o(i.__0sprintf$0) refers to printf0.o(i._sputc) for _sputc
    printf0.o(i.__0vfprintf$0) refers to printf0.o(i._printf_core) for _printf_core
    printf0.o(i.__0vfprintf$0) refers to uart.o(i.fputc) for fputc
    printf0.o(i.__0vprintf$0) refers to printf0.o(i._printf_core) for _printf_core
    printf0.o(i.__0vprintf$0) refers to uart.o(i.fputc) for fputc
    printf0.o(i.__0vprintf$0) refers to stdout.o(.data) for __stdout
    printf0.o(i.__0vsnprintf$0) refers to printf0.o(i._printf_core) for _printf_core
    printf0.o(i.__0vsnprintf$0) refers to printf0.o(i._snputc) for _snputc
    printf0.o(i.__0vsprintf$0) refers to printf0.o(i._printf_core) for _printf_core
    printf0.o(i.__0vsprintf$0) refers to printf0.o(i._sputc) for _sputc
    printf1.o(i.__0fprintf$1) refers to printf1.o(i._printf_core) for _printf_core
    printf1.o(i.__0fprintf$1) refers to uart.o(i.fputc) for fputc
    printf1.o(i.__0printf$1) refers to printf1.o(i._printf_core) for _printf_core
    printf1.o(i.__0printf$1) refers to uart.o(i.fputc) for fputc
    printf1.o(i.__0printf$1) refers to stdout.o(.data) for __stdout
    printf1.o(i.__0snprintf$1) refers to printf1.o(i._printf_core) for _printf_core
    printf1.o(i.__0snprintf$1) refers to printf1.o(i._snputc) for _snputc
    printf1.o(i.__0sprintf$1) refers to printf1.o(i._printf_core) for _printf_core
    printf1.o(i.__0sprintf$1) refers to printf1.o(i._sputc) for _sputc
    printf1.o(i.__0vfprintf$1) refers to printf1.o(i._printf_core) for _printf_core
    printf1.o(i.__0vfprintf$1) refers to uart.o(i.fputc) for fputc
    printf1.o(i.__0vprintf$1) refers to printf1.o(i._printf_core) for _printf_core
    printf1.o(i.__0vprintf$1) refers to uart.o(i.fputc) for fputc
    printf1.o(i.__0vprintf$1) refers to stdout.o(.data) for __stdout
    printf1.o(i.__0vsnprintf$1) refers to printf1.o(i._printf_core) for _printf_core
    printf1.o(i.__0vsnprintf$1) refers to printf1.o(i._snputc) for _snputc
    printf1.o(i.__0vsprintf$1) refers to printf1.o(i._printf_core) for _printf_core
    printf1.o(i.__0vsprintf$1) refers to printf1.o(i._sputc) for _sputc
    printf1.o(i._printf_core) refers to uidiv.o(.text) for __aeabi_uidivmod
    printf2.o(i.__0fprintf$2) refers to printf2.o(i._printf_core) for _printf_core
    printf2.o(i.__0fprintf$2) refers to uart.o(i.fputc) for fputc
    printf2.o(i.__0printf$2) refers to printf2.o(i._printf_core) for _printf_core
    printf2.o(i.__0printf$2) refers to uart.o(i.fputc) for fputc
    printf2.o(i.__0printf$2) refers to stdout.o(.data) for __stdout
    printf2.o(i.__0snprintf$2) refers to printf2.o(i._printf_core) for _printf_core
    printf2.o(i.__0snprintf$2) refers to printf2.o(i._snputc) for _snputc
    printf2.o(i.__0sprintf$2) refers to printf2.o(i._printf_core) for _printf_core
    printf2.o(i.__0sprintf$2) refers to printf2.o(i._sputc) for _sputc
    printf2.o(i.__0vfprintf$2) refers to printf2.o(i._printf_core) for _printf_core
    printf2.o(i.__0vfprintf$2) refers to uart.o(i.fputc) for fputc
    printf2.o(i.__0vprintf$2) refers to printf2.o(i._printf_core) for _printf_core
    printf2.o(i.__0vprintf$2) refers to uart.o(i.fputc) for fputc
    printf2.o(i.__0vprintf$2) refers to stdout.o(.data) for __stdout
    printf2.o(i.__0vsnprintf$2) refers to printf2.o(i._printf_core) for _printf_core
    printf2.o(i.__0vsnprintf$2) refers to printf2.o(i._snputc) for _snputc
    printf2.o(i.__0vsprintf$2) refers to printf2.o(i._printf_core) for _printf_core
    printf2.o(i.__0vsprintf$2) refers to printf2.o(i._sputc) for _sputc
    printf3.o(i.__0fprintf$3) refers to printf3.o(i._printf_core) for _printf_core
    printf3.o(i.__0fprintf$3) refers to uart.o(i.fputc) for fputc
    printf3.o(i.__0printf$3) refers to printf3.o(i._printf_core) for _printf_core
    printf3.o(i.__0printf$3) refers to uart.o(i.fputc) for fputc
    printf3.o(i.__0printf$3) refers to stdout.o(.data) for __stdout
    printf3.o(i.__0snprintf$3) refers to printf3.o(i._printf_core) for _printf_core
    printf3.o(i.__0snprintf$3) refers to printf3.o(i._snputc) for _snputc
    printf3.o(i.__0sprintf$3) refers to printf3.o(i._printf_core) for _printf_core
    printf3.o(i.__0sprintf$3) refers to printf3.o(i._sputc) for _sputc
    printf3.o(i.__0vfprintf$3) refers to printf3.o(i._printf_core) for _printf_core
    printf3.o(i.__0vfprintf$3) refers to uart.o(i.fputc) for fputc
    printf3.o(i.__0vprintf$3) refers to printf3.o(i._printf_core) for _printf_core
    printf3.o(i.__0vprintf$3) refers to uart.o(i.fputc) for fputc
    printf3.o(i.__0vprintf$3) refers to stdout.o(.data) for __stdout
    printf3.o(i.__0vsnprintf$3) refers to printf3.o(i._printf_core) for _printf_core
    printf3.o(i.__0vsnprintf$3) refers to printf3.o(i._snputc) for _snputc
    printf3.o(i.__0vsprintf$3) refers to printf3.o(i._printf_core) for _printf_core
    printf3.o(i.__0vsprintf$3) refers to printf3.o(i._sputc) for _sputc
    printf3.o(i._printf_core) refers to uidiv.o(.text) for __aeabi_uidivmod
    printf4.o(i.__0fprintf$4) refers to printf4.o(i._printf_core) for _printf_core
    printf4.o(i.__0fprintf$4) refers to uart.o(i.fputc) for fputc
    printf4.o(i.__0printf$4) refers to printf4.o(i._printf_core) for _printf_core
    printf4.o(i.__0printf$4) refers to uart.o(i.fputc) for fputc
    printf4.o(i.__0printf$4) refers to stdout.o(.data) for __stdout
    printf4.o(i.__0snprintf$4) refers to printf4.o(i._printf_core) for _printf_core
    printf4.o(i.__0snprintf$4) refers to printf4.o(i._snputc) for _snputc
    printf4.o(i.__0sprintf$4) refers to printf4.o(i._printf_core) for _printf_core
    printf4.o(i.__0sprintf$4) refers to printf4.o(i._sputc) for _sputc
    printf4.o(i.__0vfprintf$4) refers to printf4.o(i._printf_core) for _printf_core
    printf4.o(i.__0vfprintf$4) refers to uart.o(i.fputc) for fputc
    printf4.o(i.__0vprintf$4) refers to printf4.o(i._printf_core) for _printf_core
    printf4.o(i.__0vprintf$4) refers to uart.o(i.fputc) for fputc
    printf4.o(i.__0vprintf$4) refers to stdout.o(.data) for __stdout
    printf4.o(i.__0vsnprintf$4) refers to printf4.o(i._printf_core) for _printf_core
    printf4.o(i.__0vsnprintf$4) refers to printf4.o(i._snputc) for _snputc
    printf4.o(i.__0vsprintf$4) refers to printf4.o(i._printf_core) for _printf_core
    printf4.o(i.__0vsprintf$4) refers to printf4.o(i._sputc) for _sputc
    printf4.o(i._printf_core) refers to uldiv.o(.text) for __aeabi_uldivmod
    printf5.o(i.__0fprintf$5) refers to printf5.o(i._printf_core) for _printf_core
    printf5.o(i.__0fprintf$5) refers to uart.o(i.fputc) for fputc
    printf5.o(i.__0printf$5) refers to printf5.o(i._printf_core) for _printf_core
    printf5.o(i.__0printf$5) refers to uart.o(i.fputc) for fputc
    printf5.o(i.__0printf$5) refers to stdout.o(.data) for __stdout
    printf5.o(i.__0snprintf$5) refers to printf5.o(i._printf_core) for _printf_core
    printf5.o(i.__0snprintf$5) refers to printf5.o(i._snputc) for _snputc
    printf5.o(i.__0sprintf$5) refers to printf5.o(i._printf_core) for _printf_core
    printf5.o(i.__0sprintf$5) refers to printf5.o(i._sputc) for _sputc
    printf5.o(i.__0vfprintf$5) refers to printf5.o(i._printf_core) for _printf_core
    printf5.o(i.__0vfprintf$5) refers to uart.o(i.fputc) for fputc
    printf5.o(i.__0vprintf$5) refers to printf5.o(i._printf_core) for _printf_core
    printf5.o(i.__0vprintf$5) refers to uart.o(i.fputc) for fputc
    printf5.o(i.__0vprintf$5) refers to stdout.o(.data) for __stdout
    printf5.o(i.__0vsnprintf$5) refers to printf5.o(i._printf_core) for _printf_core
    printf5.o(i.__0vsnprintf$5) refers to printf5.o(i._snputc) for _snputc
    printf5.o(i.__0vsprintf$5) refers to printf5.o(i._printf_core) for _printf_core
    printf5.o(i.__0vsprintf$5) refers to printf5.o(i._sputc) for _sputc
    printf5.o(i._printf_core) refers to uldiv.o(.text) for __aeabi_uldivmod
    printf6.o(i.__0fprintf$6) refers to printf6.o(i._printf_core) for _printf_core
    printf6.o(i.__0fprintf$6) refers to uart.o(i.fputc) for fputc
    printf6.o(i.__0printf$6) refers to printf6.o(i._printf_core) for _printf_core
    printf6.o(i.__0printf$6) refers to uart.o(i.fputc) for fputc
    printf6.o(i.__0printf$6) refers to stdout.o(.data) for __stdout
    printf6.o(i.__0snprintf$6) refers to printf6.o(i._printf_core) for _printf_core
    printf6.o(i.__0snprintf$6) refers to printf6.o(i._snputc) for _snputc
    printf6.o(i.__0sprintf$6) refers to printf6.o(i._printf_core) for _printf_core
    printf6.o(i.__0sprintf$6) refers to printf6.o(i._sputc) for _sputc
    printf6.o(i.__0vfprintf$6) refers to printf6.o(i._printf_core) for _printf_core
    printf6.o(i.__0vfprintf$6) refers to uart.o(i.fputc) for fputc
    printf6.o(i.__0vprintf$6) refers to printf6.o(i._printf_core) for _printf_core
    printf6.o(i.__0vprintf$6) refers to uart.o(i.fputc) for fputc
    printf6.o(i.__0vprintf$6) refers to stdout.o(.data) for __stdout
    printf6.o(i.__0vsnprintf$6) refers to printf6.o(i._printf_core) for _printf_core
    printf6.o(i.__0vsnprintf$6) refers to printf6.o(i._snputc) for _snputc
    printf6.o(i.__0vsprintf$6) refers to printf6.o(i._printf_core) for _printf_core
    printf6.o(i.__0vsprintf$6) refers to printf6.o(i._sputc) for _sputc
    printf6.o(i._printf_core) refers to printf6.o(i._printf_pre_padding) for _printf_pre_padding
    printf6.o(i._printf_core) refers to uidiv.o(.text) for __aeabi_uidivmod
    printf6.o(i._printf_core) refers to printf6.o(i._printf_post_padding) for _printf_post_padding
    printf7.o(i.__0fprintf$7) refers to printf7.o(i._printf_core) for _printf_core
    printf7.o(i.__0fprintf$7) refers to uart.o(i.fputc) for fputc
    printf7.o(i.__0printf$7) refers to printf7.o(i._printf_core) for _printf_core
    printf7.o(i.__0printf$7) refers to uart.o(i.fputc) for fputc
    printf7.o(i.__0printf$7) refers to stdout.o(.data) for __stdout
    printf7.o(i.__0snprintf$7) refers to printf7.o(i._printf_core) for _printf_core
    printf7.o(i.__0snprintf$7) refers to printf7.o(i._snputc) for _snputc
    printf7.o(i.__0sprintf$7) refers to printf7.o(i._printf_core) for _printf_core
    printf7.o(i.__0sprintf$7) refers to printf7.o(i._sputc) for _sputc
    printf7.o(i.__0vfprintf$7) refers to printf7.o(i._printf_core) for _printf_core
    printf7.o(i.__0vfprintf$7) refers to uart.o(i.fputc) for fputc
    printf7.o(i.__0vprintf$7) refers to printf7.o(i._printf_core) for _printf_core
    printf7.o(i.__0vprintf$7) refers to uart.o(i.fputc) for fputc
    printf7.o(i.__0vprintf$7) refers to stdout.o(.data) for __stdout
    printf7.o(i.__0vsnprintf$7) refers to printf7.o(i._printf_core) for _printf_core
    printf7.o(i.__0vsnprintf$7) refers to printf7.o(i._snputc) for _snputc
    printf7.o(i.__0vsprintf$7) refers to printf7.o(i._printf_core) for _printf_core
    printf7.o(i.__0vsprintf$7) refers to printf7.o(i._sputc) for _sputc
    printf7.o(i._printf_core) refers to printf7.o(i._printf_pre_padding) for _printf_pre_padding
    printf7.o(i._printf_core) refers to uldiv.o(.text) for __aeabi_uldivmod
    printf7.o(i._printf_core) refers to printf7.o(i._printf_post_padding) for _printf_post_padding
    printf8.o(i.__0fprintf$8) refers to printf8.o(i._printf_core) for _printf_core
    printf8.o(i.__0fprintf$8) refers to uart.o(i.fputc) for fputc
    printf8.o(i.__0printf$8) refers to printf8.o(i._printf_core) for _printf_core
    printf8.o(i.__0printf$8) refers to uart.o(i.fputc) for fputc
    printf8.o(i.__0printf$8) refers to stdout.o(.data) for __stdout
    printf8.o(i.__0snprintf$8) refers to printf8.o(i._printf_core) for _printf_core
    printf8.o(i.__0snprintf$8) refers to printf8.o(i._snputc) for _snputc
    printf8.o(i.__0sprintf$8) refers to printf8.o(i._printf_core) for _printf_core
    printf8.o(i.__0sprintf$8) refers to printf8.o(i._sputc) for _sputc
    printf8.o(i.__0vfprintf$8) refers to printf8.o(i._printf_core) for _printf_core
    printf8.o(i.__0vfprintf$8) refers to uart.o(i.fputc) for fputc
    printf8.o(i.__0vprintf$8) refers to printf8.o(i._printf_core) for _printf_core
    printf8.o(i.__0vprintf$8) refers to uart.o(i.fputc) for fputc
    printf8.o(i.__0vprintf$8) refers to stdout.o(.data) for __stdout
    printf8.o(i.__0vsnprintf$8) refers to printf8.o(i._printf_core) for _printf_core
    printf8.o(i.__0vsnprintf$8) refers to printf8.o(i._snputc) for _snputc
    printf8.o(i.__0vsprintf$8) refers to printf8.o(i._printf_core) for _printf_core
    printf8.o(i.__0vsprintf$8) refers to printf8.o(i._sputc) for _sputc
    printf8.o(i._printf_core) refers to printf8.o(i._printf_pre_padding) for _printf_pre_padding
    printf8.o(i._printf_core) refers to uldiv.o(.text) for __aeabi_uldivmod
    printf8.o(i._printf_core) refers to printf8.o(i._printf_post_padding) for _printf_post_padding
    printfa.o(i.__0fprintf) refers (Special) to iusefp.o(.text) for __I$use$fp
    printfa.o(i.__0fprintf) refers to printfa.o(i._printf_core) for _printf_core
    printfa.o(i.__0fprintf) refers to uart.o(i.fputc) for fputc
    printfa.o(i.__0printf) refers (Special) to iusefp.o(.text) for __I$use$fp
    printfa.o(i.__0printf) refers to printfa.o(i._printf_core) for _printf_core
    printfa.o(i.__0printf) refers to uart.o(i.fputc) for fputc
    printfa.o(i.__0printf) refers to stdout.o(.data) for __stdout
    printfa.o(i.__0snprintf) refers (Special) to iusefp.o(.text) for __I$use$fp
    printfa.o(i.__0snprintf) refers to printfa.o(i._printf_core) for _printf_core
    printfa.o(i.__0snprintf) refers to printfa.o(i._snputc) for _snputc
    printfa.o(i.__0sprintf) refers (Special) to iusefp.o(.text) for __I$use$fp
    printfa.o(i.__0sprintf) refers to printfa.o(i._printf_core) for _printf_core
    printfa.o(i.__0sprintf) refers to printfa.o(i._sputc) for _sputc
    printfa.o(i.__0vfprintf) refers (Special) to iusefp.o(.text) for __I$use$fp
    printfa.o(i.__0vfprintf) refers to printfa.o(i._printf_core) for _printf_core
    printfa.o(i.__0vfprintf) refers to uart.o(i.fputc) for fputc
    printfa.o(i.__0vprintf) refers (Special) to iusefp.o(.text) for __I$use$fp
    printfa.o(i.__0vprintf) refers to printfa.o(i._printf_core) for _printf_core
    printfa.o(i.__0vprintf) refers to uart.o(i.fputc) for fputc
    printfa.o(i.__0vprintf) refers to stdout.o(.data) for __stdout
    printfa.o(i.__0vsnprintf) refers (Special) to iusefp.o(.text) for __I$use$fp
    printfa.o(i.__0vsnprintf) refers to printfa.o(i._printf_core) for _printf_core
    printfa.o(i.__0vsnprintf) refers to printfa.o(i._snputc) for _snputc
    printfa.o(i.__0vsprintf) refers (Special) to iusefp.o(.text) for __I$use$fp
    printfa.o(i.__0vsprintf) refers to printfa.o(i._printf_core) for _printf_core
    printfa.o(i.__0vsprintf) refers to printfa.o(i._sputc) for _sputc
    printfa.o(i._fp_digits) refers (Special) to iusefp.o(.text) for __I$use$fp
    printfa.o(i._fp_digits) refers to dmul.o(.text) for __aeabi_dmul
    printfa.o(i._fp_digits) refers to ddiv.o(.text) for __aeabi_ddiv
    printfa.o(i._fp_digits) refers to cdrcmple.o(.text) for __aeabi_cdrcmple
    printfa.o(i._fp_digits) refers to dadd.o(.text) for __aeabi_dadd
    printfa.o(i._fp_digits) refers to dfixul.o(.text) for __aeabi_d2ulz
    printfa.o(i._fp_digits) refers to uldiv.o(.text) for __aeabi_uldivmod
    printfa.o(i._printf_core) refers (Special) to iusefp.o(.text) for __I$use$fp
    printfa.o(i._printf_core) refers to printfa.o(i._printf_pre_padding) for _printf_pre_padding
    printfa.o(i._printf_core) refers to uldiv.o(.text) for __aeabi_uldivmod
    printfa.o(i._printf_core) refers to printfa.o(i._printf_post_padding) for _printf_post_padding
    printfa.o(i._printf_core) refers to printfa.o(i._fp_digits) for _fp_digits
    printfa.o(i._printf_core) refers to uidiv.o(.text) for __aeabi_uidivmod
    printfa.o(i._printf_post_padding) refers (Special) to iusefp.o(.text) for __I$use$fp
    printfa.o(i._printf_pre_padding) refers (Special) to iusefp.o(.text) for __I$use$fp
    printfa.o(i._snputc) refers (Special) to iusefp.o(.text) for __I$use$fp
    printfa.o(i._sputc) refers (Special) to iusefp.o(.text) for __I$use$fp
    fadd.o(.text) refers (Special) to iusefp.o(.text) for __I$use$fp
    fadd.o(.text) refers to fepilogue.o(.text) for _float_epilogue
    fmul.o(.text) refers (Special) to iusefp.o(.text) for __I$use$fp
    fdiv.o(.text) refers (Special) to iusefp.o(.text) for __I$use$fp
    fdiv.o(.text) refers to fepilogue.o(.text) for _float_round
    dmul.o(.text) refers (Special) to iusefp.o(.text) for __I$use$fp
    dmul.o(.text) refers to depilogue.o(.text) for _double_epilogue
    fflti.o(.text) refers (Special) to iusefp.o(.text) for __I$use$fp
    fflti.o(.text) refers to fepilogue.o(.text) for _float_epilogue
    ffltui.o(.text) refers (Special) to iusefp.o(.text) for __I$use$fp
    ffltui.o(.text) refers to fepilogue.o(.text) for _float_epilogue
    dfltui.o(.text) refers (Special) to iusefp.o(.text) for __I$use$fp
    dfltui.o(.text) refers to depilogue.o(.text) for _double_epilogue
    ffixi.o(.text) refers (Special) to iusefp.o(.text) for __I$use$fp
    f2d.o(.text) refers (Special) to iusefp.o(.text) for __I$use$fp
    d2f.o(.text) refers (Special) to iusefp.o(.text) for __I$use$fp
    d2f.o(.text) refers to fepilogue.o(.text) for _float_round
    cfcmple.o(.text) refers (Special) to iusefp.o(.text) for __I$use$fp
    cfrcmple.o(.text) refers (Special) to iusefp.o(.text) for __I$use$fp
    fpclassifyf.o(i.__ARM_fpclassifyf) refers (Special) to iusefp.o(.text) for __I$use$fp
    funder.o(i.__mathlib_flt_divzero) refers to fdiv.o(.text) for __aeabi_fdiv
    funder.o(i.__mathlib_flt_infnan) refers to fscalb.o(.text) for __ARM_scalbnf
    funder.o(i.__mathlib_flt_infnan2) refers to fadd.o(.text) for __aeabi_fadd
    funder.o(i.__mathlib_flt_invalid) refers to fdiv.o(.text) for __aeabi_fdiv
    funder.o(i.__mathlib_flt_overflow) refers to fscalb.o(.text) for __ARM_scalbnf
    funder.o(i.__mathlib_flt_posinfnan) refers to fmul.o(.text) for __aeabi_fmul
    funder.o(i.__mathlib_flt_underflow) refers to fscalb.o(.text) for __ARM_scalbnf
    rredf.o(i.__mathlib_rredf2) refers (Special) to iusefp.o(.text) for __I$use$fp
    rredf.o(i.__mathlib_rredf2) refers to fflti.o(.text) for __aeabi_i2f
    rredf.o(i.__mathlib_rredf2) refers to ffltui.o(.text) for __aeabi_ui2f
    rredf.o(i.__mathlib_rredf2) refers to fscalb.o(.text) for __ARM_scalbnf
    rredf.o(i.__mathlib_rredf2) refers to fadd.o(.text) for __aeabi_fadd
    rredf.o(i.__mathlib_rredf2) refers to fmul.o(.text) for __aeabi_fmul
    rredf.o(i.__mathlib_rredf2) refers to rredf.o(.constdata) for .constdata
    rredf.o(.constdata) refers (Special) to iusefp.o(.text) for __I$use$fp
    entry2.o(.ARM.Collect$$$$00000001) refers to entry2.o(.ARM.Collect$$$$00002712) for __lit__00000000
    entry2.o(.ARM.Collect$$$$00002712) refers to startup_stm32f10x_hd_vl.o(STACK) for __initial_sp
    entry2.o(__vectab_stack_and_reset_area) refers to startup_stm32f10x_hd_vl.o(STACK) for __initial_sp
    entry2.o(__vectab_stack_and_reset_area) refers to entry.o(.ARM.Collect$$$$00000000) for __main
    entry5.o(.ARM.Collect$$$$00000004) refers to init.o(.text) for __scatterload
    entry9a.o(.ARM.Collect$$$$0000000B) refers to main.o(i.main) for main
    entry9b.o(.ARM.Collect$$$$0000000C) refers to main.o(i.main) for main
    uldiv.o(.text) refers to llushr.o(.text) for __aeabi_llsr
    uldiv.o(.text) refers to llshl.o(.text) for __aeabi_llsl
    errno.o(i.__aeabi_errno_addr) refers to errno.o(.data) for .data
    errno.o(i.__read_errno) refers to errno.o(.data) for .data
    errno.o(i.__set_errno) refers to errno.o(.data) for .data
    fsqrt.o(.text) refers to fepilogue.o(.text) for _float_round
    frnd.o(.text) refers to fepilogue.o(.text) for _float_round
    depilogue.o(.text) refers to llshl.o(.text) for __aeabi_llsl
    depilogue.o(.text) refers to llushr.o(.text) for __aeabi_llsr
    dadd.o(.text) refers to llshl.o(.text) for __aeabi_llsl
    dadd.o(.text) refers to llsshr.o(.text) for __aeabi_lasr
    dadd.o(.text) refers to depilogue.o(.text) for _double_epilogue
    ddiv.o(.text) refers to depilogue.o(.text) for _double_round
    dfixul.o(.text) refers to llushr.o(.text) for __aeabi_llsr
    dfixul.o(.text) refers to llshl.o(.text) for __aeabi_llsl
    ffixir.o(.text) refers to fepilogue.o(.text) for _float_round
    init.o(.text) refers to entry5.o(.ARM.Collect$$$$00000004) for __main_after_scatterload


==============================================================================

Removing Unused input sections from the image.

    Removing led.o(i.led_test_x), (132 bytes).
    Removing i2c_soft.o(i.i2c_test), (112 bytes).
    Removing uart.o(i.opflow_uart_available), (32 bytes).
    Removing uart.o(i.opflow_uart_read_rx_fifo), (44 bytes).
    Removing uart.o(i.serial_flush_rx_fifo), (16 bytes).
    Removing uart.o(i.serial_used_tx_fifo), (32 bytes).
    Removing uart.o(i.uart_test_x), (24 bytes).
    Removing iap.o(.emb_text), (6 bytes).
    Removing iap.o(i.IAP_UPDATE_APP), (72 bytes).
    Removing iap.o(i.app_flash_write), (88 bytes).
    Removing iap.o(i.iap_init), (76 bytes).
    Removing iap.o(i.iap_load_app), (40 bytes).
    Removing iap.o(i.iap_uart_receive), (380 bytes).
    Removing stm32f10x_rcc.o(i.RCC_ADCCLKConfig), (24 bytes).
    Removing stm32f10x_rcc.o(i.RCC_AHBPeriphClockCmd), (32 bytes).
    Removing stm32f10x_rcc.o(i.RCC_APB1PeriphResetCmd), (32 bytes).
    Removing stm32f10x_rcc.o(i.RCC_APB2PeriphResetCmd), (32 bytes).
    Removing stm32f10x_rcc.o(i.RCC_AdjustHSICalibrationValue), (24 bytes).
    Removing stm32f10x_rcc.o(i.RCC_BackupResetCmd), (12 bytes).
    Removing stm32f10x_rcc.o(i.RCC_ClearFlag), (20 bytes).
    Removing stm32f10x_rcc.o(i.RCC_ClearITPendingBit), (12 bytes).
    Removing stm32f10x_rcc.o(i.RCC_ClockSecuritySystemCmd), (12 bytes).
    Removing stm32f10x_rcc.o(i.RCC_GetITStatus), (24 bytes).
    Removing stm32f10x_rcc.o(i.RCC_HSEConfig), (76 bytes).
    Removing stm32f10x_rcc.o(i.RCC_ITConfig), (32 bytes).
    Removing stm32f10x_rcc.o(i.RCC_LSEConfig), (52 bytes).
    Removing stm32f10x_rcc.o(i.RCC_LSICmd), (12 bytes).
    Removing stm32f10x_rcc.o(i.RCC_MCOConfig), (12 bytes).
    Removing stm32f10x_rcc.o(i.RCC_RTCCLKCmd), (12 bytes).
    Removing stm32f10x_rcc.o(i.RCC_RTCCLKConfig), (16 bytes).
    Removing stm32f10x_rcc.o(i.RCC_USBCLKConfig), (12 bytes).
    Removing stm32f10x_rcc.o(i.RCC_WaitForHSEStartUp), (56 bytes).
    Removing stm32f10x_gpio.o(i.GPIO_AFIODeInit), (20 bytes).
    Removing stm32f10x_gpio.o(i.GPIO_DeInit), (200 bytes).
    Removing stm32f10x_gpio.o(i.GPIO_ETH_MediaInterfaceConfig), (12 bytes).
    Removing stm32f10x_gpio.o(i.GPIO_EXTILineConfig), (64 bytes).
    Removing stm32f10x_gpio.o(i.GPIO_EventOutputCmd), (12 bytes).
    Removing stm32f10x_gpio.o(i.GPIO_EventOutputConfig), (32 bytes).
    Removing stm32f10x_gpio.o(i.GPIO_PinLockConfig), (18 bytes).
    Removing stm32f10x_gpio.o(i.GPIO_ReadInputData), (8 bytes).
    Removing stm32f10x_gpio.o(i.GPIO_ReadInputDataBit), (18 bytes).
    Removing stm32f10x_gpio.o(i.GPIO_ReadOutputData), (8 bytes).
    Removing stm32f10x_gpio.o(i.GPIO_ReadOutputDataBit), (18 bytes).
    Removing stm32f10x_gpio.o(i.GPIO_ResetBits), (4 bytes).
    Removing stm32f10x_gpio.o(i.GPIO_SetBits), (4 bytes).
    Removing stm32f10x_gpio.o(i.GPIO_StructInit), (16 bytes).
    Removing stm32f10x_gpio.o(i.GPIO_Write), (4 bytes).
    Removing stm32f10x_gpio.o(i.GPIO_WriteBit), (10 bytes).
    Removing misc.o(i.NVIC_SetVectorTable), (20 bytes).
    Removing misc.o(i.NVIC_SystemLPConfig), (32 bytes).
    Removing misc.o(i.SysTick_CLKSourceConfig), (40 bytes).
    Removing stm32f10x_exti.o(i.EXTI_ClearFlag), (12 bytes).
    Removing stm32f10x_exti.o(i.EXTI_ClearITPendingBit), (12 bytes).
    Removing stm32f10x_exti.o(i.EXTI_DeInit), (36 bytes).
    Removing stm32f10x_exti.o(i.EXTI_GenerateSWInterrupt), (16 bytes).
    Removing stm32f10x_exti.o(i.EXTI_GetFlagStatus), (24 bytes).
    Removing stm32f10x_exti.o(i.EXTI_GetITStatus), (40 bytes).
    Removing stm32f10x_exti.o(i.EXTI_Init), (148 bytes).
    Removing stm32f10x_exti.o(i.EXTI_StructInit), (16 bytes).
    Removing stm32f10x_spi.o(i.I2S_Cmd), (24 bytes).
    Removing stm32f10x_spi.o(i.I2S_Init), (232 bytes).
    Removing stm32f10x_spi.o(i.I2S_StructInit), (20 bytes).
    Removing stm32f10x_spi.o(i.SPI_BiDirectionalLineConfig), (28 bytes).
    Removing stm32f10x_spi.o(i.SPI_CalculateCRC), (24 bytes).
    Removing stm32f10x_spi.o(i.SPI_Cmd), (24 bytes).
    Removing stm32f10x_spi.o(i.SPI_DataSizeConfig), (18 bytes).
    Removing stm32f10x_spi.o(i.SPI_GetCRC), (16 bytes).
    Removing stm32f10x_spi.o(i.SPI_GetCRCPolynomial), (6 bytes).
    Removing stm32f10x_spi.o(i.SPI_I2S_ClearFlag), (6 bytes).
    Removing stm32f10x_spi.o(i.SPI_I2S_ClearITPendingBit), (20 bytes).
    Removing stm32f10x_spi.o(i.SPI_I2S_DMACmd), (18 bytes).
    Removing stm32f10x_spi.o(i.SPI_I2S_DeInit), (88 bytes).
    Removing stm32f10x_spi.o(i.SPI_I2S_GetFlagStatus), (18 bytes).
    Removing stm32f10x_spi.o(i.SPI_I2S_GetITStatus), (52 bytes).
    Removing stm32f10x_spi.o(i.SPI_I2S_ITConfig), (32 bytes).
    Removing stm32f10x_spi.o(i.SPI_I2S_ReceiveData), (6 bytes).
    Removing stm32f10x_spi.o(i.SPI_I2S_SendData), (4 bytes).
    Removing stm32f10x_spi.o(i.SPI_Init), (60 bytes).
    Removing stm32f10x_spi.o(i.SPI_NSSInternalSoftwareConfig), (30 bytes).
    Removing stm32f10x_spi.o(i.SPI_SSOutputCmd), (24 bytes).
    Removing stm32f10x_spi.o(i.SPI_StructInit), (24 bytes).
    Removing stm32f10x_spi.o(i.SPI_TransmitCRC), (10 bytes).
    Removing stm32f10x_fsmc.o(i.FSMC_ClearFlag), (64 bytes).
    Removing stm32f10x_fsmc.o(i.FSMC_ClearITPendingBit), (72 bytes).
    Removing stm32f10x_fsmc.o(i.FSMC_GetECC), (28 bytes).
    Removing stm32f10x_fsmc.o(i.FSMC_GetFlagStatus), (56 bytes).
    Removing stm32f10x_fsmc.o(i.FSMC_GetITStatus), (68 bytes).
    Removing stm32f10x_fsmc.o(i.FSMC_ITConfig), (128 bytes).
    Removing stm32f10x_fsmc.o(i.FSMC_NANDCmd), (92 bytes).
    Removing stm32f10x_fsmc.o(i.FSMC_NANDDeInit), (68 bytes).
    Removing stm32f10x_fsmc.o(i.FSMC_NANDECCCmd), (92 bytes).
    Removing stm32f10x_fsmc.o(i.FSMC_NANDInit), (136 bytes).
    Removing stm32f10x_fsmc.o(i.FSMC_NANDStructInit), (54 bytes).
    Removing stm32f10x_fsmc.o(i.FSMC_NORSRAMCmd), (52 bytes).
    Removing stm32f10x_fsmc.o(i.FSMC_NORSRAMDeInit), (54 bytes).
    Removing stm32f10x_fsmc.o(i.FSMC_NORSRAMInit), (230 bytes).
    Removing stm32f10x_fsmc.o(i.FSMC_NORSRAMStructInit), (114 bytes).
    Removing stm32f10x_fsmc.o(i.FSMC_PCCARDCmd), (48 bytes).
    Removing stm32f10x_fsmc.o(i.FSMC_PCCARDDeInit), (40 bytes).
    Removing stm32f10x_fsmc.o(i.FSMC_PCCARDInit), (132 bytes).
    Removing stm32f10x_fsmc.o(i.FSMC_PCCARDStructInit), (60 bytes).
    Removing stm32f10x_usart.o(i.USART_ClearFlag), (18 bytes).
    Removing stm32f10x_usart.o(i.USART_ClockInit), (34 bytes).
    Removing stm32f10x_usart.o(i.USART_ClockStructInit), (12 bytes).
    Removing stm32f10x_usart.o(i.USART_DMACmd), (18 bytes).
    Removing stm32f10x_usart.o(i.USART_DeInit), (156 bytes).
    Removing stm32f10x_usart.o(i.USART_GetFlagStatus), (26 bytes).
    Removing stm32f10x_usart.o(i.USART_HalfDuplexCmd), (24 bytes).
    Removing stm32f10x_usart.o(i.USART_IrDACmd), (24 bytes).
    Removing stm32f10x_usart.o(i.USART_IrDAConfig), (18 bytes).
    Removing stm32f10x_usart.o(i.USART_LINBreakDetectLengthConfig), (18 bytes).
    Removing stm32f10x_usart.o(i.USART_LINCmd), (24 bytes).
    Removing stm32f10x_usart.o(i.USART_OneBitMethodCmd), (24 bytes).
    Removing stm32f10x_usart.o(i.USART_OverSampling8Cmd), (22 bytes).
    Removing stm32f10x_usart.o(i.USART_ReceiverWakeUpCmd), (24 bytes).
    Removing stm32f10x_usart.o(i.USART_SendBreak), (10 bytes).
    Removing stm32f10x_usart.o(i.USART_SetAddress), (18 bytes).
    Removing stm32f10x_usart.o(i.USART_SetGuardTime), (16 bytes).
    Removing stm32f10x_usart.o(i.USART_SetPrescaler), (16 bytes).
    Removing stm32f10x_usart.o(i.USART_SmartCardCmd), (24 bytes).
    Removing stm32f10x_usart.o(i.USART_SmartCardNACKCmd), (24 bytes).
    Removing stm32f10x_usart.o(i.USART_StructInit), (24 bytes).
    Removing stm32f10x_usart.o(i.USART_WakeUpConfig), (18 bytes).
    Removing stm32f10x_sdio.o(i.SDIO_CEATAITCmd), (16 bytes).
    Removing stm32f10x_sdio.o(i.SDIO_ClearFlag), (12 bytes).
    Removing stm32f10x_sdio.o(i.SDIO_ClearITPendingBit), (12 bytes).
    Removing stm32f10x_sdio.o(i.SDIO_ClockCmd), (12 bytes).
    Removing stm32f10x_sdio.o(i.SDIO_CmdStructInit), (14 bytes).
    Removing stm32f10x_sdio.o(i.SDIO_CommandCompletionCmd), (12 bytes).
    Removing stm32f10x_sdio.o(i.SDIO_DMACmd), (12 bytes).
    Removing stm32f10x_sdio.o(i.SDIO_DataConfig), (48 bytes).
    Removing stm32f10x_sdio.o(i.SDIO_DataStructInit), (20 bytes).
    Removing stm32f10x_sdio.o(i.SDIO_DeInit), (36 bytes).
    Removing stm32f10x_sdio.o(i.SDIO_GetCommandResponse), (12 bytes).
    Removing stm32f10x_sdio.o(i.SDIO_GetDataCounter), (12 bytes).
    Removing stm32f10x_sdio.o(i.SDIO_GetFIFOCount), (12 bytes).
    Removing stm32f10x_sdio.o(i.SDIO_GetFlagStatus), (24 bytes).
    Removing stm32f10x_sdio.o(i.SDIO_GetITStatus), (24 bytes).
    Removing stm32f10x_sdio.o(i.SDIO_GetPowerState), (16 bytes).
    Removing stm32f10x_sdio.o(i.SDIO_GetResponse), (24 bytes).
    Removing stm32f10x_sdio.o(i.SDIO_ITConfig), (32 bytes).
    Removing stm32f10x_sdio.o(i.SDIO_Init), (48 bytes).
    Removing stm32f10x_sdio.o(i.SDIO_ReadData), (12 bytes).
    Removing stm32f10x_sdio.o(i.SDIO_SendCEATACmd), (12 bytes).
    Removing stm32f10x_sdio.o(i.SDIO_SendCommand), (44 bytes).
    Removing stm32f10x_sdio.o(i.SDIO_SendSDIOSuspendCmd), (12 bytes).
    Removing stm32f10x_sdio.o(i.SDIO_SetPowerState), (28 bytes).
    Removing stm32f10x_sdio.o(i.SDIO_SetSDIOOperation), (12 bytes).
    Removing stm32f10x_sdio.o(i.SDIO_SetSDIOReadWaitMode), (12 bytes).
    Removing stm32f10x_sdio.o(i.SDIO_StartSDIOReadWait), (12 bytes).
    Removing stm32f10x_sdio.o(i.SDIO_StopSDIOReadWait), (12 bytes).
    Removing stm32f10x_sdio.o(i.SDIO_StructInit), (16 bytes).
    Removing stm32f10x_sdio.o(i.SDIO_WriteData), (12 bytes).
    Removing stm32f10x_dma.o(i.DMA_ClearFlag), (28 bytes).
    Removing stm32f10x_dma.o(i.DMA_ClearITPendingBit), (28 bytes).
    Removing stm32f10x_dma.o(i.DMA_Cmd), (24 bytes).
    Removing stm32f10x_dma.o(i.DMA_DeInit), (332 bytes).
    Removing stm32f10x_dma.o(i.DMA_GetCurrDataCounter), (8 bytes).
    Removing stm32f10x_dma.o(i.DMA_GetFlagStatus), (44 bytes).
    Removing stm32f10x_dma.o(i.DMA_GetITStatus), (44 bytes).
    Removing stm32f10x_dma.o(i.DMA_ITConfig), (18 bytes).
    Removing stm32f10x_dma.o(i.DMA_Init), (60 bytes).
    Removing stm32f10x_dma.o(i.DMA_SetCurrDataCounter), (4 bytes).
    Removing stm32f10x_dma.o(i.DMA_StructInit), (26 bytes).
    Removing stm32f10x_i2c.o(i.I2C_ARPCmd), (24 bytes).
    Removing stm32f10x_i2c.o(i.I2C_AcknowledgeConfig), (24 bytes).
    Removing stm32f10x_i2c.o(i.I2C_CalculatePEC), (24 bytes).
    Removing stm32f10x_i2c.o(i.I2C_CheckEvent), (42 bytes).
    Removing stm32f10x_i2c.o(i.I2C_ClearFlag), (12 bytes).
    Removing stm32f10x_i2c.o(i.I2C_ClearITPendingBit), (12 bytes).
    Removing stm32f10x_i2c.o(i.I2C_Cmd), (24 bytes).
    Removing stm32f10x_i2c.o(i.I2C_DMACmd), (24 bytes).
    Removing stm32f10x_i2c.o(i.I2C_DMALastTransferCmd), (24 bytes).
    Removing stm32f10x_i2c.o(i.I2C_DeInit), (56 bytes).
    Removing stm32f10x_i2c.o(i.I2C_DualAddressCmd), (24 bytes).
    Removing stm32f10x_i2c.o(i.I2C_FastModeDutyCycleConfig), (28 bytes).
    Removing stm32f10x_i2c.o(i.I2C_GeneralCallCmd), (24 bytes).
    Removing stm32f10x_i2c.o(i.I2C_GenerateSTART), (24 bytes).
    Removing stm32f10x_i2c.o(i.I2C_GenerateSTOP), (24 bytes).
    Removing stm32f10x_i2c.o(i.I2C_GetFlagStatus), (58 bytes).
    Removing stm32f10x_i2c.o(i.I2C_GetITStatus), (38 bytes).
    Removing stm32f10x_i2c.o(i.I2C_GetLastEvent), (26 bytes).
    Removing stm32f10x_i2c.o(i.I2C_GetPEC), (8 bytes).
    Removing stm32f10x_i2c.o(i.I2C_ITConfig), (18 bytes).
    Removing stm32f10x_i2c.o(i.I2C_Init), (236 bytes).
    Removing stm32f10x_i2c.o(i.I2C_NACKPositionConfig), (28 bytes).
    Removing stm32f10x_i2c.o(i.I2C_OwnAddress2Config), (22 bytes).
    Removing stm32f10x_i2c.o(i.I2C_PECPositionConfig), (28 bytes).
    Removing stm32f10x_i2c.o(i.I2C_ReadRegister), (22 bytes).
    Removing stm32f10x_i2c.o(i.I2C_ReceiveData), (8 bytes).
    Removing stm32f10x_i2c.o(i.I2C_SMBusAlertConfig), (28 bytes).
    Removing stm32f10x_i2c.o(i.I2C_Send7bitAddress), (18 bytes).
    Removing stm32f10x_i2c.o(i.I2C_SendData), (4 bytes).
    Removing stm32f10x_i2c.o(i.I2C_SoftwareResetCmd), (22 bytes).
    Removing stm32f10x_i2c.o(i.I2C_StretchClockCmd), (24 bytes).
    Removing stm32f10x_i2c.o(i.I2C_StructInit), (30 bytes).
    Removing stm32f10x_i2c.o(i.I2C_TransmitPEC), (24 bytes).
    Removing stm32f10x_adc.o(i.ADC_AnalogWatchdogCmd), (20 bytes).
    Removing stm32f10x_adc.o(i.ADC_AnalogWatchdogSingleChannelConfig), (16 bytes).
    Removing stm32f10x_adc.o(i.ADC_AnalogWatchdogThresholdsConfig), (6 bytes).
    Removing stm32f10x_adc.o(i.ADC_AutoInjectedConvCmd), (22 bytes).
    Removing stm32f10x_adc.o(i.ADC_ClearFlag), (6 bytes).
    Removing stm32f10x_adc.o(i.ADC_ClearITPendingBit), (10 bytes).
    Removing stm32f10x_adc.o(i.ADC_Cmd), (22 bytes).
    Removing stm32f10x_adc.o(i.ADC_DMACmd), (22 bytes).
    Removing stm32f10x_adc.o(i.ADC_DeInit), (92 bytes).
    Removing stm32f10x_adc.o(i.ADC_DiscModeChannelCountConfig), (24 bytes).
    Removing stm32f10x_adc.o(i.ADC_DiscModeCmd), (22 bytes).
    Removing stm32f10x_adc.o(i.ADC_ExternalTrigConvCmd), (22 bytes).
    Removing stm32f10x_adc.o(i.ADC_ExternalTrigInjectedConvCmd), (22 bytes).
    Removing stm32f10x_adc.o(i.ADC_ExternalTrigInjectedConvConfig), (16 bytes).
    Removing stm32f10x_adc.o(i.ADC_GetCalibrationStatus), (20 bytes).
    Removing stm32f10x_adc.o(i.ADC_GetConversionValue), (8 bytes).
    Removing stm32f10x_adc.o(i.ADC_GetDualModeConversionValue), (12 bytes).
    Removing stm32f10x_adc.o(i.ADC_GetFlagStatus), (18 bytes).
    Removing stm32f10x_adc.o(i.ADC_GetITStatus), (36 bytes).
    Removing stm32f10x_adc.o(i.ADC_GetInjectedConversionValue), (28 bytes).
    Removing stm32f10x_adc.o(i.ADC_GetResetCalibrationStatus), (20 bytes).
    Removing stm32f10x_adc.o(i.ADC_GetSoftwareStartConvStatus), (20 bytes).
    Removing stm32f10x_adc.o(i.ADC_GetSoftwareStartInjectedConvCmdStatus), (20 bytes).
    Removing stm32f10x_adc.o(i.ADC_ITConfig), (24 bytes).
    Removing stm32f10x_adc.o(i.ADC_Init), (80 bytes).
    Removing stm32f10x_adc.o(i.ADC_InjectedChannelConfig), (130 bytes).
    Removing stm32f10x_adc.o(i.ADC_InjectedDiscModeCmd), (22 bytes).
    Removing stm32f10x_adc.o(i.ADC_InjectedSequencerLengthConfig), (24 bytes).
    Removing stm32f10x_adc.o(i.ADC_RegularChannelConfig), (184 bytes).
    Removing stm32f10x_adc.o(i.ADC_ResetCalibration), (10 bytes).
    Removing stm32f10x_adc.o(i.ADC_SetInjectedOffset), (20 bytes).
    Removing stm32f10x_adc.o(i.ADC_SoftwareStartConvCmd), (22 bytes).
    Removing stm32f10x_adc.o(i.ADC_SoftwareStartInjectedConvCmd), (22 bytes).
    Removing stm32f10x_adc.o(i.ADC_StartCalibration), (10 bytes).
    Removing stm32f10x_adc.o(i.ADC_StructInit), (18 bytes).
    Removing stm32f10x_adc.o(i.ADC_TempSensorVrefintCmd), (36 bytes).
    Removing stm32f10x_bkp.o(i.BKP_ClearFlag), (20 bytes).
    Removing stm32f10x_bkp.o(i.BKP_ClearITPendingBit), (20 bytes).
    Removing stm32f10x_bkp.o(i.BKP_DeInit), (16 bytes).
    Removing stm32f10x_bkp.o(i.BKP_GetFlagStatus), (12 bytes).
    Removing stm32f10x_bkp.o(i.BKP_GetITStatus), (12 bytes).
    Removing stm32f10x_bkp.o(i.BKP_ITConfig), (12 bytes).
    Removing stm32f10x_bkp.o(i.BKP_RTCOutputConfig), (28 bytes).
    Removing stm32f10x_bkp.o(i.BKP_ReadBackupRegister), (28 bytes).
    Removing stm32f10x_bkp.o(i.BKP_SetRTCCalibrationValue), (28 bytes).
    Removing stm32f10x_bkp.o(i.BKP_TamperPinCmd), (12 bytes).
    Removing stm32f10x_bkp.o(i.BKP_TamperPinLevelConfig), (12 bytes).
    Removing stm32f10x_bkp.o(i.BKP_WriteBackupRegister), (28 bytes).
    Removing stm32f10x_can.o(i.CAN_CancelTransmit), (48 bytes).
    Removing stm32f10x_can.o(i.CAN_ClearFlag), (56 bytes).
    Removing stm32f10x_can.o(i.CAN_ClearITPendingBit), (168 bytes).
    Removing stm32f10x_can.o(i.CAN_DBGFreeze), (22 bytes).
    Removing stm32f10x_can.o(i.CAN_DeInit), (56 bytes).
    Removing stm32f10x_can.o(i.CAN_FIFORelease), (22 bytes).
    Removing stm32f10x_can.o(i.CAN_FilterInit), (264 bytes).
    Removing stm32f10x_can.o(i.CAN_GetFlagStatus), (120 bytes).
    Removing stm32f10x_can.o(i.CAN_GetITStatus), (288 bytes).
    Removing stm32f10x_can.o(i.CAN_GetLSBTransmitErrorCounter), (12 bytes).
    Removing stm32f10x_can.o(i.CAN_GetLastErrorCode), (12 bytes).
    Removing stm32f10x_can.o(i.CAN_GetReceiveErrorCounter), (10 bytes).
    Removing stm32f10x_can.o(i.CAN_ITConfig), (18 bytes).
    Removing stm32f10x_can.o(i.CAN_Init), (276 bytes).
    Removing stm32f10x_can.o(i.CAN_MessagePending), (30 bytes).
    Removing stm32f10x_can.o(i.CAN_OperatingModeRequest), (162 bytes).
    Removing stm32f10x_can.o(i.CAN_Receive), (240 bytes).
    Removing stm32f10x_can.o(i.CAN_SlaveStartBank), (52 bytes).
    Removing stm32f10x_can.o(i.CAN_Sleep), (30 bytes).
    Removing stm32f10x_can.o(i.CAN_StructInit), (32 bytes).
    Removing stm32f10x_can.o(i.CAN_TTComModeCmd), (118 bytes).
    Removing stm32f10x_can.o(i.CAN_Transmit), (294 bytes).
    Removing stm32f10x_can.o(i.CAN_TransmitStatus), (160 bytes).
    Removing stm32f10x_can.o(i.CAN_WakeUp), (48 bytes).
    Removing stm32f10x_can.o(i.CheckITStatus), (18 bytes).
    Removing stm32f10x_cec.o(i.CEC_ClearFlag), (36 bytes).
    Removing stm32f10x_cec.o(i.CEC_ClearITPendingBit), (36 bytes).
    Removing stm32f10x_cec.o(i.CEC_Cmd), (32 bytes).
    Removing stm32f10x_cec.o(i.CEC_DeInit), (22 bytes).
    Removing stm32f10x_cec.o(i.CEC_EndOfMessageCmd), (12 bytes).
    Removing stm32f10x_cec.o(i.CEC_GetFlagStatus), (48 bytes).
    Removing stm32f10x_cec.o(i.CEC_GetITStatus), (40 bytes).
    Removing stm32f10x_cec.o(i.CEC_ITConfig), (12 bytes).
    Removing stm32f10x_cec.o(i.CEC_Init), (32 bytes).
    Removing stm32f10x_cec.o(i.CEC_OwnAddressConfig), (12 bytes).
    Removing stm32f10x_cec.o(i.CEC_ReceiveDataByte), (12 bytes).
    Removing stm32f10x_cec.o(i.CEC_SendDataByte), (12 bytes).
    Removing stm32f10x_cec.o(i.CEC_SetPrescaler), (12 bytes).
    Removing stm32f10x_cec.o(i.CEC_StartOfMessage), (12 bytes).
    Removing stm32f10x_crc.o(i.CRC_CalcBlockCRC), (36 bytes).
    Removing stm32f10x_crc.o(i.CRC_CalcCRC), (16 bytes).
    Removing stm32f10x_crc.o(i.CRC_GetCRC), (12 bytes).
    Removing stm32f10x_crc.o(i.CRC_GetIDRegister), (12 bytes).
    Removing stm32f10x_crc.o(i.CRC_ResetDR), (12 bytes).
    Removing stm32f10x_crc.o(i.CRC_SetIDRegister), (12 bytes).
    Removing stm32f10x_dac.o(i.DAC_Cmd), (40 bytes).
    Removing stm32f10x_dac.o(i.DAC_DMACmd), (44 bytes).
    Removing stm32f10x_dac.o(i.DAC_DeInit), (22 bytes).
    Removing stm32f10x_dac.o(i.DAC_DualSoftwareTriggerCmd), (36 bytes).
    Removing stm32f10x_dac.o(i.DAC_GetDataOutputValue), (36 bytes).
    Removing stm32f10x_dac.o(i.DAC_Init), (52 bytes).
    Removing stm32f10x_dac.o(i.DAC_SetChannel1Data), (32 bytes).
    Removing stm32f10x_dac.o(i.DAC_SetChannel2Data), (32 bytes).
    Removing stm32f10x_dac.o(i.DAC_SetDualChannelData), (36 bytes).
    Removing stm32f10x_dac.o(i.DAC_SoftwareTriggerCmd), (44 bytes).
    Removing stm32f10x_dac.o(i.DAC_StructInit), (12 bytes).
    Removing stm32f10x_dac.o(i.DAC_WaveGenerationCmd), (40 bytes).
    Removing stm32f10x_dbgmcu.o(i.DBGMCU_Config), (32 bytes).
    Removing stm32f10x_dbgmcu.o(i.DBGMCU_GetDEVID), (16 bytes).
    Removing stm32f10x_dbgmcu.o(i.DBGMCU_GetREVID), (12 bytes).
    Removing stm32f10x_flash.o(i.FLASH_EnableWriteProtection), (196 bytes).
    Removing stm32f10x_flash.o(i.FLASH_EraseAllBank1Pages), (72 bytes).
    Removing stm32f10x_flash.o(i.FLASH_EraseAllPages), (72 bytes).
    Removing stm32f10x_flash.o(i.FLASH_EraseOptionBytes), (168 bytes).
    Removing stm32f10x_flash.o(i.FLASH_GetFlagStatus), (48 bytes).
    Removing stm32f10x_flash.o(i.FLASH_GetPrefetchBufferStatus), (24 bytes).
    Removing stm32f10x_flash.o(i.FLASH_GetReadOutProtectionStatus), (24 bytes).
    Removing stm32f10x_flash.o(i.FLASH_GetStatus), (52 bytes).
    Removing stm32f10x_flash.o(i.FLASH_GetUserOptionByte), (12 bytes).
    Removing stm32f10x_flash.o(i.FLASH_GetWriteProtectionOptionByte), (12 bytes).
    Removing stm32f10x_flash.o(i.FLASH_HalfCycleAccessCmd), (28 bytes).
    Removing stm32f10x_flash.o(i.FLASH_ITConfig), (32 bytes).
    Removing stm32f10x_flash.o(i.FLASH_LockBank1), (20 bytes).
    Removing stm32f10x_flash.o(i.FLASH_ProgramHalfWord), (64 bytes).
    Removing stm32f10x_flash.o(i.FLASH_ProgramOptionByteData), (84 bytes).
    Removing stm32f10x_flash.o(i.FLASH_ReadOutProtection), (172 bytes).
    Removing stm32f10x_flash.o(i.FLASH_UnlockBank1), (24 bytes).
    Removing stm32f10x_flash.o(i.FLASH_UserOptionByteConfig), (104 bytes).
    Removing stm32f10x_flash.o(i.FLASH_WaitForLastBank1Operation), (38 bytes).
    Removing stm32f10x_iwdg.o(i.IWDG_Enable), (16 bytes).
    Removing stm32f10x_iwdg.o(i.IWDG_GetFlagStatus), (24 bytes).
    Removing stm32f10x_iwdg.o(i.IWDG_ReloadCounter), (16 bytes).
    Removing stm32f10x_iwdg.o(i.IWDG_SetPrescaler), (12 bytes).
    Removing stm32f10x_iwdg.o(i.IWDG_SetReload), (12 bytes).
    Removing stm32f10x_iwdg.o(i.IWDG_WriteAccessCmd), (12 bytes).
    Removing stm32f10x_pwr.o(i.PWR_BackupAccessCmd), (12 bytes).
    Removing stm32f10x_pwr.o(i.PWR_ClearFlag), (20 bytes).
    Removing stm32f10x_pwr.o(i.PWR_DeInit), (22 bytes).
    Removing stm32f10x_pwr.o(i.PWR_EnterSTANDBYMode), (52 bytes).
    Removing stm32f10x_pwr.o(i.PWR_EnterSTOPMode), (64 bytes).
    Removing stm32f10x_pwr.o(i.PWR_GetFlagStatus), (24 bytes).
    Removing stm32f10x_pwr.o(i.PWR_PVDCmd), (12 bytes).
    Removing stm32f10x_pwr.o(i.PWR_PVDLevelConfig), (24 bytes).
    Removing stm32f10x_pwr.o(i.PWR_WakeUpPinCmd), (12 bytes).
    Removing stm32f10x_rtc.o(i.RTC_ClearFlag), (16 bytes).
    Removing stm32f10x_rtc.o(i.RTC_ClearITPendingBit), (16 bytes).
    Removing stm32f10x_rtc.o(i.RTC_EnterConfigMode), (20 bytes).
    Removing stm32f10x_rtc.o(i.RTC_ExitConfigMode), (20 bytes).
    Removing stm32f10x_rtc.o(i.RTC_GetCounter), (20 bytes).
    Removing stm32f10x_rtc.o(i.RTC_GetDivider), (24 bytes).
    Removing stm32f10x_rtc.o(i.RTC_GetFlagStatus), (24 bytes).
    Removing stm32f10x_rtc.o(i.RTC_GetITStatus), (36 bytes).
    Removing stm32f10x_rtc.o(i.RTC_ITConfig), (32 bytes).
    Removing stm32f10x_rtc.o(i.RTC_SetAlarm), (28 bytes).
    Removing stm32f10x_rtc.o(i.RTC_SetCounter), (28 bytes).
    Removing stm32f10x_rtc.o(i.RTC_SetPrescaler), (32 bytes).
    Removing stm32f10x_rtc.o(i.RTC_WaitForLastTask), (20 bytes).
    Removing stm32f10x_rtc.o(i.RTC_WaitForSynchro), (36 bytes).
    Removing stm32f10x_tim.o(i.TI1_Config), (128 bytes).
    Removing stm32f10x_tim.o(i.TI2_Config), (152 bytes).
    Removing stm32f10x_tim.o(i.TI3_Config), (144 bytes).
    Removing stm32f10x_tim.o(i.TI4_Config), (152 bytes).
    Removing stm32f10x_tim.o(i.TIM_BDTRConfig), (32 bytes).
    Removing stm32f10x_tim.o(i.TIM_BDTRStructInit), (18 bytes).
    Removing stm32f10x_tim.o(i.TIM_CCPreloadControl), (24 bytes).
    Removing stm32f10x_tim.o(i.TIM_CCxCmd), (30 bytes).
    Removing stm32f10x_tim.o(i.TIM_CCxNCmd), (30 bytes).
    Removing stm32f10x_tim.o(i.TIM_ClearFlag), (6 bytes).
    Removing stm32f10x_tim.o(i.TIM_ClearOC1Ref), (18 bytes).
    Removing stm32f10x_tim.o(i.TIM_ClearOC2Ref), (24 bytes).
    Removing stm32f10x_tim.o(i.TIM_ClearOC3Ref), (18 bytes).
    Removing stm32f10x_tim.o(i.TIM_ClearOC4Ref), (24 bytes).
    Removing stm32f10x_tim.o(i.TIM_CounterModeConfig), (18 bytes).
    Removing stm32f10x_tim.o(i.TIM_CtrlPWMOutputs), (30 bytes).
    Removing stm32f10x_tim.o(i.TIM_DMACmd), (18 bytes).
    Removing stm32f10x_tim.o(i.TIM_DMAConfig), (10 bytes).
    Removing stm32f10x_tim.o(i.TIM_DeInit), (488 bytes).
    Removing stm32f10x_tim.o(i.TIM_ETRClockMode1Config), (54 bytes).
    Removing stm32f10x_tim.o(i.TIM_ETRClockMode2Config), (32 bytes).
    Removing stm32f10x_tim.o(i.TIM_ETRConfig), (28 bytes).
    Removing stm32f10x_tim.o(i.TIM_EncoderInterfaceConfig), (66 bytes).
    Removing stm32f10x_tim.o(i.TIM_ForcedOC1Config), (18 bytes).
    Removing stm32f10x_tim.o(i.TIM_ForcedOC2Config), (26 bytes).
    Removing stm32f10x_tim.o(i.TIM_ForcedOC3Config), (18 bytes).
    Removing stm32f10x_tim.o(i.TIM_ForcedOC4Config), (26 bytes).
    Removing stm32f10x_tim.o(i.TIM_GenerateEvent), (4 bytes).
    Removing stm32f10x_tim.o(i.TIM_GetCapture1), (6 bytes).
    Removing stm32f10x_tim.o(i.TIM_GetCapture2), (6 bytes).
    Removing stm32f10x_tim.o(i.TIM_GetCapture3), (6 bytes).
    Removing stm32f10x_tim.o(i.TIM_GetCapture4), (8 bytes).
    Removing stm32f10x_tim.o(i.TIM_GetFlagStatus), (18 bytes).
    Removing stm32f10x_tim.o(i.TIM_GetITStatus), (34 bytes).
    Removing stm32f10x_tim.o(i.TIM_GetPrescaler), (6 bytes).
    Removing stm32f10x_tim.o(i.TIM_ICInit), (172 bytes).
    Removing stm32f10x_tim.o(i.TIM_ICStructInit), (18 bytes).
    Removing stm32f10x_tim.o(i.TIM_ITRxExternalClockConfig), (24 bytes).
    Removing stm32f10x_tim.o(i.TIM_InternalClockConfig), (12 bytes).
    Removing stm32f10x_tim.o(i.TIM_OC1FastConfig), (18 bytes).
    Removing stm32f10x_tim.o(i.TIM_OC1NPolarityConfig), (18 bytes).
    Removing stm32f10x_tim.o(i.TIM_OC1PolarityConfig), (18 bytes).
    Removing stm32f10x_tim.o(i.TIM_OC2FastConfig), (26 bytes).
    Removing stm32f10x_tim.o(i.TIM_OC2NPolarityConfig), (26 bytes).
    Removing stm32f10x_tim.o(i.TIM_OC2PolarityConfig), (26 bytes).
    Removing stm32f10x_tim.o(i.TIM_OC3FastConfig), (18 bytes).
    Removing stm32f10x_tim.o(i.TIM_OC3NPolarityConfig), (26 bytes).
    Removing stm32f10x_tim.o(i.TIM_OC3PolarityConfig), (26 bytes).
    Removing stm32f10x_tim.o(i.TIM_OC4FastConfig), (26 bytes).
    Removing stm32f10x_tim.o(i.TIM_OC4PolarityConfig), (26 bytes).
    Removing stm32f10x_tim.o(i.TIM_OCStructInit), (20 bytes).
    Removing stm32f10x_tim.o(i.TIM_PWMIConfig), (124 bytes).
    Removing stm32f10x_tim.o(i.TIM_PrescalerConfig), (6 bytes).
    Removing stm32f10x_tim.o(i.TIM_SelectCCDMA), (24 bytes).
    Removing stm32f10x_tim.o(i.TIM_SelectCOM), (24 bytes).
    Removing stm32f10x_tim.o(i.TIM_SelectHallSensor), (24 bytes).
    Removing stm32f10x_tim.o(i.TIM_SelectInputTrigger), (18 bytes).
    Removing stm32f10x_tim.o(i.TIM_SelectMasterSlaveMode), (18 bytes).
    Removing stm32f10x_tim.o(i.TIM_SelectOCxM), (82 bytes).
    Removing stm32f10x_tim.o(i.TIM_SelectOnePulseMode), (18 bytes).
    Removing stm32f10x_tim.o(i.TIM_SelectOutputTrigger), (18 bytes).
    Removing stm32f10x_tim.o(i.TIM_SelectSlaveMode), (18 bytes).
    Removing stm32f10x_tim.o(i.TIM_SetAutoreload), (4 bytes).
    Removing stm32f10x_tim.o(i.TIM_SetClockDivision), (18 bytes).
    Removing stm32f10x_tim.o(i.TIM_SetCounter), (4 bytes).
    Removing stm32f10x_tim.o(i.TIM_SetIC1Prescaler), (18 bytes).
    Removing stm32f10x_tim.o(i.TIM_SetIC2Prescaler), (26 bytes).
    Removing stm32f10x_tim.o(i.TIM_SetIC3Prescaler), (18 bytes).
    Removing stm32f10x_tim.o(i.TIM_SetIC4Prescaler), (26 bytes).
    Removing stm32f10x_tim.o(i.TIM_TIxExternalClockConfig), (62 bytes).
    Removing stm32f10x_tim.o(i.TIM_TimeBaseStructInit), (18 bytes).
    Removing stm32f10x_tim.o(i.TIM_UpdateDisableConfig), (24 bytes).
    Removing stm32f10x_tim.o(i.TIM_UpdateRequestConfig), (24 bytes).
    Removing stm32f10x_wwdg.o(i.WWDG_ClearFlag), (12 bytes).
    Removing stm32f10x_wwdg.o(i.WWDG_DeInit), (22 bytes).
    Removing stm32f10x_wwdg.o(i.WWDG_Enable), (16 bytes).
    Removing stm32f10x_wwdg.o(i.WWDG_EnableIT), (12 bytes).
    Removing stm32f10x_wwdg.o(i.WWDG_GetFlagStatus), (12 bytes).
    Removing stm32f10x_wwdg.o(i.WWDG_SetCounter), (16 bytes).
    Removing stm32f10x_wwdg.o(i.WWDG_SetPrescaler), (24 bytes).
    Removing stm32f10x_wwdg.o(i.WWDG_SetWindowValue), (40 bytes).
    Removing core_cm3.o(.emb_text), (32 bytes).
    Removing system_stm32f10x.o(i.SystemCoreClockUpdate), (164 bytes).
    Removing system_stm32f10x.o(.data), (20 bytes).
    Removing startup_stm32f10x_hd_vl.o(HEAP), (512 bytes).
    Removing fifo.o(i.fifo_reset), (10 bytes).
    Removing filter.o(i.nullFilterApply), (6 bytes).
    Removing filter.o(i.pt1FilterApply4), (84 bytes).
    Removing mlib.o(i.abs), (14 bytes).
    Removing mlib.o(i.cos_approx), (24 bytes).
    Removing mlib.o(i.quickMedianFilter3), (118 bytes).
    Removing mlib.o(i.quickMedianFilter7), (422 bytes).
    Removing mpu6050.o(i.mpu6050_test), (80 bytes).
    Removing accgyro.o(i.accgyro_test), (144 bytes).
    Removing imu.o(i.imu_test), (84 bytes).
    Removing barometer.o(i.baro_test), (144 bytes).
    Removing opflow.o(i.getEstimatedPosition), (788 bytes).
    Removing opflow.o(i.opticalflow_ctrl), (32 bytes).
    Removing opflow.o(i.opticalflow_update), (628 bytes).
    Removing opflow.o(.bss), (9 bytes).
    Removing decode.o(i.decode_test), (144 bytes).
    Removing fc.o(i.fc_init), (60 bytes).
    Removing motor.o(i.motor_pwm_output_duty25), (24 bytes).
    Removing motor.o(i.motor_test_rc), (56 bytes).

457 unused section(s) (total 20923 bytes) removed from the image.

==============================================================================

Image Symbol Table

    Local Symbols

    Symbol Name                              Value     Ov Type        Size  Object(Section)

    ../clib/../cmprslib/zerorunl2.c          0x00000000   Number         0  __dczerorl2.o ABSOLUTE
    ../clib/microlib/division.c              0x00000000   Number         0  uldiv.o ABSOLUTE
    ../clib/microlib/division.c              0x00000000   Number         0  uidiv.o ABSOLUTE
    ../clib/microlib/errno.c                 0x00000000   Number         0  errno.o ABSOLUTE
    ../clib/microlib/init/entry.s            0x00000000   Number         0  entry7a.o ABSOLUTE
    ../clib/microlib/init/entry.s            0x00000000   Number         0  entry8b.o ABSOLUTE
    ../clib/microlib/init/entry.s            0x00000000   Number         0  entry9a.o ABSOLUTE
    ../clib/microlib/init/entry.s            0x00000000   Number         0  entry9b.o ABSOLUTE
    ../clib/microlib/init/entry.s            0x00000000   Number         0  entry.o ABSOLUTE
    ../clib/microlib/init/entry.s            0x00000000   Number         0  entry10b.o ABSOLUTE
    ../clib/microlib/init/entry.s            0x00000000   Number         0  entry10a.o ABSOLUTE
    ../clib/microlib/init/entry.s            0x00000000   Number         0  entry8a.o ABSOLUTE
    ../clib/microlib/init/entry.s            0x00000000   Number         0  entry5.o ABSOLUTE
    ../clib/microlib/init/entry.s            0x00000000   Number         0  entry7b.o ABSOLUTE
    ../clib/microlib/init/entry.s            0x00000000   Number         0  entry11a.o ABSOLUTE
    ../clib/microlib/init/entry.s            0x00000000   Number         0  entry11b.o ABSOLUTE
    ../clib/microlib/init/entry.s            0x00000000   Number         0  entry2.o ABSOLUTE
    ../clib/microlib/longlong.c              0x00000000   Number         0  llshl.o ABSOLUTE
    ../clib/microlib/longlong.c              0x00000000   Number         0  llsshr.o ABSOLUTE
    ../clib/microlib/longlong.c              0x00000000   Number         0  llushr.o ABSOLUTE
    ../clib/microlib/printf/printf.c         0x00000000   Number         0  printf6.o ABSOLUTE
    ../clib/microlib/printf/printf.c         0x00000000   Number         0  printf5.o ABSOLUTE
    ../clib/microlib/printf/printf.c         0x00000000   Number         0  printf4.o ABSOLUTE
    ../clib/microlib/printf/printf.c         0x00000000   Number         0  printf2.o ABSOLUTE
    ../clib/microlib/printf/printf.c         0x00000000   Number         0  printf0.o ABSOLUTE
    ../clib/microlib/printf/printf.c         0x00000000   Number         0  printfb.o ABSOLUTE
    ../clib/microlib/printf/printf.c         0x00000000   Number         0  printf3.o ABSOLUTE
    ../clib/microlib/printf/printf.c         0x00000000   Number         0  printf8.o ABSOLUTE
    ../clib/microlib/printf/printf.c         0x00000000   Number         0  printf1.o ABSOLUTE
    ../clib/microlib/printf/printf.c         0x00000000   Number         0  printfa.o ABSOLUTE
    ../clib/microlib/printf/printf.c         0x00000000   Number         0  printf7.o ABSOLUTE
    ../clib/microlib/printf/stubs.s          0x00000000   Number         0  stubs.o ABSOLUTE
    ../clib/microlib/stdio/streams.c         0x00000000   Number         0  stdout.o ABSOLUTE
    ../clib/microlib/string/memcpy.c         0x00000000   Number         0  memcpya.o ABSOLUTE
    ../clib/microlib/string/memcpy.c         0x00000000   Number         0  memcpyb.o ABSOLUTE
    ../clib/microlib/string/memset.c         0x00000000   Number         0  memseta.o ABSOLUTE
    ../clib/microlib/stubs.s                 0x00000000   Number         0  iusefp.o ABSOLUTE
    ../fplib/microlib/d2f.c                  0x00000000   Number         0  d2f.o ABSOLUTE
    ../fplib/microlib/f2d.c                  0x00000000   Number         0  f2d.o ABSOLUTE
    ../fplib/microlib/fpadd.c                0x00000000   Number         0  dadd.o ABSOLUTE
    ../fplib/microlib/fpadd.c                0x00000000   Number         0  fadd.o ABSOLUTE
    ../fplib/microlib/fpdiv.c                0x00000000   Number         0  ddiv.o ABSOLUTE
    ../fplib/microlib/fpdiv.c                0x00000000   Number         0  fdiv.o ABSOLUTE
    ../fplib/microlib/fpepilogue.c           0x00000000   Number         0  depilogue.o ABSOLUTE
    ../fplib/microlib/fpepilogue.c           0x00000000   Number         0  fepilogue.o ABSOLUTE
    ../fplib/microlib/fpfix.c                0x00000000   Number         0  ffixir.o ABSOLUTE
    ../fplib/microlib/fpfix.c                0x00000000   Number         0  dfixul.o ABSOLUTE
    ../fplib/microlib/fpfix.c                0x00000000   Number         0  ffixi.o ABSOLUTE
    ../fplib/microlib/fpflt.c                0x00000000   Number         0  dfltui.o ABSOLUTE
    ../fplib/microlib/fpflt.c                0x00000000   Number         0  ffltui.o ABSOLUTE
    ../fplib/microlib/fpflt.c                0x00000000   Number         0  fflti.o ABSOLUTE
    ../fplib/microlib/fpmul.c                0x00000000   Number         0  dmul.o ABSOLUTE
    ../fplib/microlib/fpmul.c                0x00000000   Number         0  fmul.o ABSOLUTE
    ../fplib/microlib/fprnd.c                0x00000000   Number         0  frnd.o ABSOLUTE
    ../fplib/microlib/fpscalb.c              0x00000000   Number         0  fscalb.o ABSOLUTE
    ../fplib/microlib/fpsqrt.c               0x00000000   Number         0  fsqrt.o ABSOLUTE
    ../fplib/microlib/fpstat.c               0x00000000   Number         0  fpstat.o ABSOLUTE
    ../mathlib/atan2f.c                      0x00000000   Number         0  atan2f.o ABSOLUTE
    ../mathlib/atan2f.c                      0x00000000   Number         0  atan2f_x.o ABSOLUTE
    ../mathlib/cosf.c                        0x00000000   Number         0  cosf_x.o ABSOLUTE
    ../mathlib/cosf.c                        0x00000000   Number         0  cosf.o ABSOLUTE
    ../mathlib/fpclassifyf.c                 0x00000000   Number         0  fpclassifyf.o ABSOLUTE
    ../mathlib/funder.c                      0x00000000   Number         0  funder.o ABSOLUTE
    ../mathlib/lrint.c                       0x00000000   Number         0  lrintf.o ABSOLUTE
    ../mathlib/lrint.c                       0x00000000   Number         0  lrintf_x.o ABSOLUTE
    ../mathlib/powf.c                        0x00000000   Number         0  powf.o ABSOLUTE
    ../mathlib/powf.c                        0x00000000   Number         0  powf_x.o ABSOLUTE
    ../mathlib/rredf.c                       0x00000000   Number         0  rredf.o ABSOLUTE
    ../mathlib/sinf.c                        0x00000000   Number         0  sinf_x.o ABSOLUTE
    ../mathlib/sinf.c                        0x00000000   Number         0  sinf.o ABSOLUTE
    ../mathlib/sqrtf.c                       0x00000000   Number         0  sqrtf_x.o ABSOLUTE
    ../mathlib/sqrtf.c                       0x00000000   Number         0  sqrtf.o ABSOLUTE
    ..\..\..\Libraries\CMSIS\CM3\CoreSupport\core_cm3.c 0x00000000   Number         0  core_cm3.o ABSOLUTE
    ..\..\..\Libraries\CMSIS\CM3\DeviceSupport\ST\STM32F10x\startup\arm\startup_stm32f10x_hd_vl.s 0x00000000   Number         0  startup_stm32f10x_hd_vl.o ABSOLUTE
    ..\..\..\Libraries\STM32F10x_StdPeriph_Driver\src\misc.c 0x00000000   Number         0  misc.o ABSOLUTE
    ..\..\..\Libraries\STM32F10x_StdPeriph_Driver\src\stm32f10x_adc.c 0x00000000   Number         0  stm32f10x_adc.o ABSOLUTE
    ..\..\..\Libraries\STM32F10x_StdPeriph_Driver\src\stm32f10x_bkp.c 0x00000000   Number         0  stm32f10x_bkp.o ABSOLUTE
    ..\..\..\Libraries\STM32F10x_StdPeriph_Driver\src\stm32f10x_can.c 0x00000000   Number         0  stm32f10x_can.o ABSOLUTE
    ..\..\..\Libraries\STM32F10x_StdPeriph_Driver\src\stm32f10x_cec.c 0x00000000   Number         0  stm32f10x_cec.o ABSOLUTE
    ..\..\..\Libraries\STM32F10x_StdPeriph_Driver\src\stm32f10x_crc.c 0x00000000   Number         0  stm32f10x_crc.o ABSOLUTE
    ..\..\..\Libraries\STM32F10x_StdPeriph_Driver\src\stm32f10x_dac.c 0x00000000   Number         0  stm32f10x_dac.o ABSOLUTE
    ..\..\..\Libraries\STM32F10x_StdPeriph_Driver\src\stm32f10x_dbgmcu.c 0x00000000   Number         0  stm32f10x_dbgmcu.o ABSOLUTE
    ..\..\..\Libraries\STM32F10x_StdPeriph_Driver\src\stm32f10x_dma.c 0x00000000   Number         0  stm32f10x_dma.o ABSOLUTE
    ..\..\..\Libraries\STM32F10x_StdPeriph_Driver\src\stm32f10x_exti.c 0x00000000   Number         0  stm32f10x_exti.o ABSOLUTE
    ..\..\..\Libraries\STM32F10x_StdPeriph_Driver\src\stm32f10x_flash.c 0x00000000   Number         0  stm32f10x_flash.o ABSOLUTE
    ..\..\..\Libraries\STM32F10x_StdPeriph_Driver\src\stm32f10x_fsmc.c 0x00000000   Number         0  stm32f10x_fsmc.o ABSOLUTE
    ..\..\..\Libraries\STM32F10x_StdPeriph_Driver\src\stm32f10x_gpio.c 0x00000000   Number         0  stm32f10x_gpio.o ABSOLUTE
    ..\..\..\Libraries\STM32F10x_StdPeriph_Driver\src\stm32f10x_i2c.c 0x00000000   Number         0  stm32f10x_i2c.o ABSOLUTE
    ..\..\..\Libraries\STM32F10x_StdPeriph_Driver\src\stm32f10x_iwdg.c 0x00000000   Number         0  stm32f10x_iwdg.o ABSOLUTE
    ..\..\..\Libraries\STM32F10x_StdPeriph_Driver\src\stm32f10x_pwr.c 0x00000000   Number         0  stm32f10x_pwr.o ABSOLUTE
    ..\..\..\Libraries\STM32F10x_StdPeriph_Driver\src\stm32f10x_rcc.c 0x00000000   Number         0  stm32f10x_rcc.o ABSOLUTE
    ..\..\..\Libraries\STM32F10x_StdPeriph_Driver\src\stm32f10x_rtc.c 0x00000000   Number         0  stm32f10x_rtc.o ABSOLUTE
    ..\..\..\Libraries\STM32F10x_StdPeriph_Driver\src\stm32f10x_sdio.c 0x00000000   Number         0  stm32f10x_sdio.o ABSOLUTE
    ..\..\..\Libraries\STM32F10x_StdPeriph_Driver\src\stm32f10x_spi.c 0x00000000   Number         0  stm32f10x_spi.o ABSOLUTE
    ..\..\..\Libraries\STM32F10x_StdPeriph_Driver\src\stm32f10x_tim.c 0x00000000   Number         0  stm32f10x_tim.o ABSOLUTE
    ..\..\..\Libraries\STM32F10x_StdPeriph_Driver\src\stm32f10x_usart.c 0x00000000   Number         0  stm32f10x_usart.o ABSOLUTE
    ..\..\..\Libraries\STM32F10x_StdPeriph_Driver\src\stm32f10x_wwdg.c 0x00000000   Number         0  stm32f10x_wwdg.o ABSOLUTE
    ..\..\..\src\ahrs\accgyro.c              0x00000000   Number         0  accgyro.o ABSOLUTE
    ..\..\..\src\ahrs\alignment.c            0x00000000   Number         0  alignment.o ABSOLUTE
    ..\..\..\src\ahrs\altitude.c             0x00000000   Number         0  altitude.o ABSOLUTE
    ..\..\..\src\ahrs\barometer.c            0x00000000   Number         0  barometer.o ABSOLUTE
    ..\..\..\src\ahrs\imu.c                  0x00000000   Number         0  imu.o ABSOLUTE
    ..\..\..\src\ahrs\mpu6050.c              0x00000000   Number         0  mpu6050.o ABSOLUTE
    ..\..\..\src\ahrs\opflow.c               0x00000000   Number         0  opflow.o ABSOLUTE
    ..\..\..\src\ahrs\spl06.c                0x00000000   Number         0  spl06.o ABSOLUTE
    ..\..\..\src\bus\i2c_soft.c              0x00000000   Number         0  i2c_soft.o ABSOLUTE
    ..\..\..\src\bus\uart.c                  0x00000000   Number         0  uart.o ABSOLUTE
    ..\..\..\src\common\fifo.c               0x00000000   Number         0  fifo.o ABSOLUTE
    ..\..\..\src\common\filter.c             0x00000000   Number         0  filter.o ABSOLUTE
    ..\..\..\src\common\mlib.c               0x00000000   Number         0  mlib.o ABSOLUTE
    ..\..\..\src\fc\decode.c                 0x00000000   Number         0  decode.o ABSOLUTE
    ..\..\..\src\fc\fc.c                     0x00000000   Number         0  fc.o ABSOLUTE
    ..\..\..\src\fc\pid.c                    0x00000000   Number         0  pid.o ABSOLUTE
    ..\..\..\src\hardware\hw_i2c_soft.c      0x00000000   Number         0  hw_i2c_soft.o ABSOLUTE
    ..\..\..\src\hardware\hw_led.c           0x00000000   Number         0  hw_led.o ABSOLUTE
    ..\..\..\src\hardware\hw_timer.c         0x00000000   Number         0  hw_timer.o ABSOLUTE
    ..\..\..\src\hardware\hw_uart.c          0x00000000   Number         0  hw_uart.o ABSOLUTE
    ..\..\..\src\iap\iap.c                   0x00000000   Number         0  iap.o ABSOLUTE
    ..\..\..\src\led\led.c                   0x00000000   Number         0  led.o ABSOLUTE
    ..\..\..\src\main.c                      0x00000000   Number         0  main.o ABSOLUTE
    ..\..\..\src\motor\motor.c               0x00000000   Number         0  motor.o ABSOLUTE
    ..\..\..\src\msp\msp.c                   0x00000000   Number         0  msp.o ABSOLUTE
    ..\..\..\src\schedule\ticks.c            0x00000000   Number         0  ticks.o ABSOLUTE
    ..\\..\\..\\Libraries\\CMSIS\\CM3\\CoreSupport\\core_cm3.c 0x00000000   Number         0  core_cm3.o ABSOLUTE
    ..\\..\\..\\src\\iap\\iap.c              0x00000000   Number         0  iap.o ABSOLUTE
    ..\system_stm32f10x.c                    0x00000000   Number         0  system_stm32f10x.o ABSOLUTE
    cdrcmple.s                               0x00000000   Number         0  cdrcmple.o ABSOLUTE
    cfcmple.s                                0x00000000   Number         0  cfcmple.o ABSOLUTE
    cfrcmple.s                               0x00000000   Number         0  cfrcmple.o ABSOLUTE
    dc.s                                     0x00000000   Number         0  dc.o ABSOLUTE
    handlers.s                               0x00000000   Number         0  handlers.o ABSOLUTE
    init.s                                   0x00000000   Number         0  init.o ABSOLUTE
    RESET                                    0x08004000   Section      308  startup_stm32f10x_hd_vl.o(RESET)
    .ARM.Collect$$$$00000000                 0x08004134   Section        0  entry.o(.ARM.Collect$$$$00000000)
    .ARM.Collect$$$$00000001                 0x08004134   Section        4  entry2.o(.ARM.Collect$$$$00000001)
    .ARM.Collect$$$$00000004                 0x08004138   Section        4  entry5.o(.ARM.Collect$$$$00000004)
    .ARM.Collect$$$$00000008                 0x0800413c   Section        0  entry7b.o(.ARM.Collect$$$$00000008)
    .ARM.Collect$$$$0000000A                 0x0800413c   Section        0  entry8b.o(.ARM.Collect$$$$0000000A)
    .ARM.Collect$$$$0000000B                 0x0800413c   Section        8  entry9a.o(.ARM.Collect$$$$0000000B)
    .ARM.Collect$$$$0000000D                 0x08004144   Section        0  entry10a.o(.ARM.Collect$$$$0000000D)
    .ARM.Collect$$$$0000000F                 0x08004144   Section        0  entry11a.o(.ARM.Collect$$$$0000000F)
    .ARM.Collect$$$$00002712                 0x08004144   Section        4  entry2.o(.ARM.Collect$$$$00002712)
    __lit__00000000                          0x08004144   Data           4  entry2.o(.ARM.Collect$$$$00002712)
    .text                                    0x08004148   Section       36  startup_stm32f10x_hd_vl.o(.text)
    .text                                    0x0800416c   Section        0  memseta.o(.text)
    .text                                    0x08004190   Section        0  fadd.o(.text)
    .text                                    0x08004240   Section        0  fmul.o(.text)
    .text                                    0x080042a4   Section        0  fdiv.o(.text)
    .text                                    0x08004320   Section        0  dmul.o(.text)
    .text                                    0x08004404   Section        0  fflti.o(.text)
    .text                                    0x08004416   Section        0  ffltui.o(.text)
    .text                                    0x08004420   Section        0  dfltui.o(.text)
    .text                                    0x0800443a   Section        0  ffixi.o(.text)
    .text                                    0x0800446c   Section        0  f2d.o(.text)
    .text                                    0x08004492   Section        0  d2f.o(.text)
    .text                                    0x080044cc   Section       20  cfcmple.o(.text)
    .text                                    0x080044e0   Section       20  cfrcmple.o(.text)
    .text                                    0x080044f4   Section        0  uidiv.o(.text)
    .text                                    0x08004520   Section        0  uldiv.o(.text)
    .text                                    0x08004582   Section        0  iusefp.o(.text)
    .text                                    0x08004582   Section        0  fepilogue.o(.text)
    .text                                    0x080045f0   Section        0  fscalb.o(.text)
    .text                                    0x08004608   Section        0  fsqrt.o(.text)
    .text                                    0x08004666   Section        0  frnd.o(.text)
    .text                                    0x080046a2   Section        0  depilogue.o(.text)
    .text                                    0x0800475c   Section        0  dadd.o(.text)
    .text                                    0x080048aa   Section        0  ddiv.o(.text)
    .text                                    0x08004988   Section        0  dfixul.o(.text)
    .text                                    0x080049b8   Section        0  ffixir.o(.text)
    .text                                    0x08004a04   Section       48  cdrcmple.o(.text)
    .text                                    0x08004a34   Section        0  fpstat.o(.text)
    .text                                    0x08004a38   Section       36  init.o(.text)
    .text                                    0x08004a5c   Section        0  llshl.o(.text)
    .text                                    0x08004a7a   Section        0  llushr.o(.text)
    .text                                    0x08004a9a   Section        0  llsshr.o(.text)
    .text                                    0x08004abe   Section        0  __dczerorl2.o(.text)
    i.FLASH_ClearFlag                        0x08004b14   Section        0  stm32f10x_flash.o(i.FLASH_ClearFlag)
    i.FLASH_ErasePage                        0x08004b20   Section        0  stm32f10x_flash.o(i.FLASH_ErasePage)
    i.FLASH_GetBank1Status                   0x08004b6c   Section        0  stm32f10x_flash.o(i.FLASH_GetBank1Status)
    i.FLASH_Lock                             0x08004ba0   Section        0  stm32f10x_flash.o(i.FLASH_Lock)
    i.FLASH_PrefetchBufferCmd                0x08004bb4   Section        0  stm32f10x_flash.o(i.FLASH_PrefetchBufferCmd)
    i.FLASH_ProgramWord                      0x08004bd0   Section        0  stm32f10x_flash.o(i.FLASH_ProgramWord)
    i.FLASH_ReadWord                         0x08004c3c   Section        0  iap.o(i.FLASH_ReadWord)
    i.FLASH_SetLatency                       0x08004c44   Section        0  stm32f10x_flash.o(i.FLASH_SetLatency)
    i.FLASH_Unlock                           0x08004c5c   Section        0  stm32f10x_flash.o(i.FLASH_Unlock)
    i.FLASH_WaitForLastOperation             0x08004c74   Section        0  stm32f10x_flash.o(i.FLASH_WaitForLastOperation)
    i.GPIO_Init                              0x08004c9a   Section        0  stm32f10x_gpio.o(i.GPIO_Init)
    i.GPIO_PinRemapConfig                    0x08004db0   Section        0  stm32f10x_gpio.o(i.GPIO_PinRemapConfig)
    i.HSI_SetSysClock                        0x08004e40   Section        0  system_stm32f10x.o(i.HSI_SetSysClock)
    HSI_SetSysClock                          0x08004e41   Thumb Code   116  system_stm32f10x.o(i.HSI_SetSysClock)
    i.NVIC_Init                              0x08004eb8   Section        0  misc.o(i.NVIC_Init)
    i.NVIC_PriorityGroupConfig               0x08004f28   Section        0  misc.o(i.NVIC_PriorityGroupConfig)
    i.RCC_APB1PeriphClockCmd                 0x08004f3c   Section        0  stm32f10x_rcc.o(i.RCC_APB1PeriphClockCmd)
    i.RCC_APB2PeriphClockCmd                 0x08004f5c   Section        0  stm32f10x_rcc.o(i.RCC_APB2PeriphClockCmd)
    i.RCC_Configuration                      0x08004f7c   Section        0  system_stm32f10x.o(i.RCC_Configuration)
    RCC_Configuration                        0x08004f7d   Thumb Code   134  system_stm32f10x.o(i.RCC_Configuration)
    i.RCC_DeInit                             0x08005008   Section        0  stm32f10x_rcc.o(i.RCC_DeInit)
    i.RCC_GetClocksFreq                      0x08005054   Section        0  stm32f10x_rcc.o(i.RCC_GetClocksFreq)
    i.RCC_GetFlagStatus                      0x08005128   Section        0  stm32f10x_rcc.o(i.RCC_GetFlagStatus)
    i.RCC_GetSYSCLKSource                    0x08005164   Section        0  stm32f10x_rcc.o(i.RCC_GetSYSCLKSource)
    i.RCC_HCLKConfig                         0x08005174   Section        0  stm32f10x_rcc.o(i.RCC_HCLKConfig)
    i.RCC_HSICmd                             0x0800518c   Section        0  stm32f10x_rcc.o(i.RCC_HSICmd)
    i.RCC_PCLK1Config                        0x08005198   Section        0  stm32f10x_rcc.o(i.RCC_PCLK1Config)
    i.RCC_PCLK2Config                        0x080051b0   Section        0  stm32f10x_rcc.o(i.RCC_PCLK2Config)
    i.RCC_PLLCmd                             0x080051c8   Section        0  stm32f10x_rcc.o(i.RCC_PLLCmd)
    i.RCC_PLLConfig                          0x080051d4   Section        0  stm32f10x_rcc.o(i.RCC_PLLConfig)
    i.RCC_SYSCLKConfig                       0x080051f0   Section        0  stm32f10x_rcc.o(i.RCC_SYSCLKConfig)
    i.SetSysClock                            0x08005208   Section        0  system_stm32f10x.o(i.SetSysClock)
    SetSysClock                              0x08005209   Thumb Code    10  system_stm32f10x.o(i.SetSysClock)
    i.SystemInit                             0x08005214   Section        0  system_stm32f10x.o(i.SystemInit)
    i.TIM2_IRQHandler                        0x0800528c   Section        0  hw_timer.o(i.TIM2_IRQHandler)
    i.TIM_ARRPreloadConfig                   0x080052a4   Section        0  stm32f10x_tim.o(i.TIM_ARRPreloadConfig)
    i.TIM_ClearITPendingBit                  0x080052bc   Section        0  stm32f10x_tim.o(i.TIM_ClearITPendingBit)
    i.TIM_Cmd                                0x080052c2   Section        0  stm32f10x_tim.o(i.TIM_Cmd)
    i.TIM_GetCounter                         0x080052da   Section        0  stm32f10x_tim.o(i.TIM_GetCounter)
    i.TIM_ITConfig                           0x080052e0   Section        0  stm32f10x_tim.o(i.TIM_ITConfig)
    i.TIM_OC1Init                            0x080052f4   Section        0  stm32f10x_tim.o(i.TIM_OC1Init)
    i.TIM_OC1PreloadConfig                   0x0800538c   Section        0  stm32f10x_tim.o(i.TIM_OC1PreloadConfig)
    i.TIM_OC2Init                            0x080053a0   Section        0  stm32f10x_tim.o(i.TIM_OC2Init)
    i.TIM_OC2PreloadConfig                   0x08005444   Section        0  stm32f10x_tim.o(i.TIM_OC2PreloadConfig)
    i.TIM_OC3Init                            0x08005460   Section        0  stm32f10x_tim.o(i.TIM_OC3Init)
    i.TIM_OC3PreloadConfig                   0x08005500   Section        0  stm32f10x_tim.o(i.TIM_OC3PreloadConfig)
    i.TIM_OC4Init                            0x08005514   Section        0  stm32f10x_tim.o(i.TIM_OC4Init)
    i.TIM_OC4PreloadConfig                   0x08005590   Section        0  stm32f10x_tim.o(i.TIM_OC4PreloadConfig)
    i.TIM_SetCompare1                        0x080055aa   Section        0  stm32f10x_tim.o(i.TIM_SetCompare1)
    i.TIM_SetCompare2                        0x080055ae   Section        0  stm32f10x_tim.o(i.TIM_SetCompare2)
    i.TIM_SetCompare3                        0x080055b2   Section        0  stm32f10x_tim.o(i.TIM_SetCompare3)
    i.TIM_SetCompare4                        0x080055b6   Section        0  stm32f10x_tim.o(i.TIM_SetCompare4)
    i.TIM_TimeBaseInit                       0x080055bc   Section        0  stm32f10x_tim.o(i.TIM_TimeBaseInit)
    i.USART1_IRQHandler                      0x08005660   Section        0  hw_uart.o(i.USART1_IRQHandler)
    i.USART3_IRQHandler                      0x08005728   Section        0  hw_uart.o(i.USART3_IRQHandler)
    i.USART_ClearITPendingBit                0x080057dc   Section        0  stm32f10x_usart.o(i.USART_ClearITPendingBit)
    i.USART_Cmd                              0x080057fa   Section        0  stm32f10x_usart.o(i.USART_Cmd)
    i.USART_GetITStatus                      0x08005812   Section        0  stm32f10x_usart.o(i.USART_GetITStatus)
    i.USART_ITConfig                         0x08005866   Section        0  stm32f10x_usart.o(i.USART_ITConfig)
    i.USART_Init                             0x080058b0   Section        0  stm32f10x_usart.o(i.USART_Init)
    i.USART_ReceiveData                      0x08005988   Section        0  stm32f10x_usart.o(i.USART_ReceiveData)
    i.USART_SendData                         0x08005992   Section        0  stm32f10x_usart.o(i.USART_SendData)
    i.__0printf                              0x0800599c   Section        0  printfa.o(i.__0printf)
    i.__ARM_fpclassifyf                      0x080059bc   Section        0  fpclassifyf.o(i.__ARM_fpclassifyf)
    i.__mathlib_flt_divzero                  0x080059e2   Section        0  funder.o(i.__mathlib_flt_divzero)
    i.__mathlib_flt_infnan                   0x080059ec   Section        0  funder.o(i.__mathlib_flt_infnan)
    i.__mathlib_flt_infnan2                  0x080059f2   Section        0  funder.o(i.__mathlib_flt_infnan2)
    i.__mathlib_flt_invalid                  0x080059f6   Section        0  funder.o(i.__mathlib_flt_invalid)
    i.__mathlib_flt_overflow                 0x080059fe   Section        0  funder.o(i.__mathlib_flt_overflow)
    i.__mathlib_flt_underflow                0x08005a08   Section        0  funder.o(i.__mathlib_flt_underflow)
    i.__mathlib_rredf2                       0x08005a14   Section        0  rredf.o(i.__mathlib_rredf2)
    i.__scatterload_copy                     0x08005b7c   Section       14  handlers.o(i.__scatterload_copy)
    i.__scatterload_null                     0x08005b8a   Section        2  handlers.o(i.__scatterload_null)
    i.__scatterload_zeroinit                 0x08005b8c   Section       14  handlers.o(i.__scatterload_zeroinit)
    i.__set_errno                            0x08005b9c   Section        0  errno.o(i.__set_errno)
    i._fp_digits                             0x08005ba8   Section        0  printfa.o(i._fp_digits)
    _fp_digits                               0x08005ba9   Thumb Code   366  printfa.o(i._fp_digits)
    i._printf_core                           0x08005d2c   Section        0  printfa.o(i._printf_core)
    _printf_core                             0x08005d2d   Thumb Code  1744  printfa.o(i._printf_core)
    i._printf_post_padding                   0x08006408   Section        0  printfa.o(i._printf_post_padding)
    _printf_post_padding                     0x08006409   Thumb Code    36  printfa.o(i._printf_post_padding)
    i._printf_pre_padding                    0x0800642c   Section        0  printfa.o(i._printf_pre_padding)
    _printf_pre_padding                      0x0800642d   Thumb Code    46  printfa.o(i._printf_pre_padding)
    i.acc_calbration                         0x0800645c   Section        0  accgyro.o(i.acc_calbration)
    i.accgyro_init                           0x08006570   Section        0  accgyro.o(i.accgyro_init)
    i.accgyro_update                         0x08006644   Section        0  accgyro.o(i.accgyro_update)
    i.acos_approx                            0x0800673c   Section        0  mlib.o(i.acos_approx)
    i.altitude_baro_update                   0x080067d0   Section        0  altitude.o(i.altitude_baro_update)
    i.altitude_ctrl                          0x08006a5c   Section        0  altitude.o(i.altitude_ctrl)
    i.annexCode                              0x08006a7c   Section        0  decode.o(i.annexCode)
    i.app_flag_write                         0x08006c98   Section        0  iap.o(i.app_flag_write)
    i.applyBarometerMedianFilter             0x08006ccc   Section        0  altitude.o(i.applyBarometerMedianFilter)
    i.applyDeadband                          0x08006d10   Section        0  mlib.o(i.applyDeadband)
    i.apply_sensor_alignment                 0x08006d32   Section        0  alignment.o(i.apply_sensor_alignment)
    i.atan2_approx                           0x08006db0   Section        0  mlib.o(i.atan2_approx)
    i.atan2f                                 0x08006ef0   Section        0  atan2f.o(i.atan2f)
    i.baro_init                              0x0800714c   Section        0  barometer.o(i.baro_init)
    i.baro_update                            0x08007178   Section        0  barometer.o(i.baro_update)
    i.biquadFilterApply                      0x08007224   Section        0  filter.o(i.biquadFilterApply)
    i.biquadFilterInit                       0x08007284   Section        0  filter.o(i.biquadFilterInit)
    biquadFilterInit                         0x08007285   Thumb Code   322  filter.o(i.biquadFilterInit)
    i.biquadFilterInitLPF                    0x080073d0   Section        0  filter.o(i.biquadFilterInitLPF)
    i.cfg_init_temp                          0x08007404   Section        0  iap.o(i.cfg_init_temp)
    i.cfg_save_temp                          0x08007428   Section        0  iap.o(i.cfg_save_temp)
    i.constrain                              0x08007490   Section        0  mlib.o(i.constrain)
    i.constrain_float                        0x0800749e   Section        0  mlib.o(i.constrain_float)
    i.cosf                                   0x080074c4   Section        0  cosf.o(i.cosf)
    i.debug_uart_init                        0x08007640   Section        0  uart.o(i.debug_uart_init)
    i.decode                                 0x0800768c   Section        0  decode.o(i.decode)
    i.delay_ms                               0x080076d0   Section        0  ticks.o(i.delay_ms)
    i.deviceDetect                           0x080076e8   Section        0  spl06.o(i.deviceDetect)
    deviceDetect                             0x080076e9   Thumb Code    40  spl06.o(i.deviceDetect)
    i.flight_ctrl                            0x08007710   Section        0  fc.o(i.flight_ctrl)
    i.fputc                                  0x0800776c   Section        0  uart.o(i.fputc)
    i.from_euler                             0x08007780   Section        0  imu.o(i.from_euler)
    i.getEstimatedAltitude                   0x080078b0   Section        0  altitude.o(i.getEstimatedAltitude)
    i.gyro_calbration                        0x08007e08   Section        0  accgyro.o(i.gyro_calbration)
    i.hw_debug_uart_init                     0x08007ef4   Section        0  hw_uart.o(i.hw_debug_uart_init)
    i.hw_led_initialize                      0x08007fa4   Section        0  hw_led.o(i.hw_led_initialize)
    i.hw_opticalflow_uart_init               0x08008018   Section        0  hw_uart.o(i.hw_opticalflow_uart_init)
    i.hw_soft_i2c_init                       0x080080c8   Section        0  hw_i2c_soft.o(i.hw_soft_i2c_init)
    i.hw_soft_i2c_sda_input                  0x08008108   Section        0  hw_i2c_soft.o(i.hw_soft_i2c_sda_input)
    i.hw_soft_i2c_sda_output                 0x08008124   Section        0  hw_i2c_soft.o(i.hw_soft_i2c_sda_output)
    i.hw_tim3_init                           0x08008140   Section        0  hw_timer.o(i.hw_tim3_init)
    i.hw_tim4_init                           0x08008238   Section        0  hw_timer.o(i.hw_tim4_init)
    i.hw_tim6_init                           0x08008270   Section        0  hw_timer.o(i.hw_tim6_init)
    i.iap_for_app                            0x080082d8   Section        0  iap.o(i.iap_for_app)
    i.iap_for_app_init                       0x0800838c   Section        0  iap.o(i.iap_for_app_init)
    i.imuCalculateAcceleration               0x080083c0   Section        0  imu.o(i.imuCalculateAcceleration)
    i.imuCalculateEstimatedAttitude          0x080084ac   Section        0  imu.o(i.imuCalculateEstimatedAttitude)
    i.imuComputeRotationMatrix               0x080085d8   Section        0  imu.o(i.imuComputeRotationMatrix)
    i.imuGetPGainScaleFactor                 0x08008750   Section        0  imu.o(i.imuGetPGainScaleFactor)
    imuGetPGainScaleFactor                   0x08008751   Thumb Code    18  imu.o(i.imuGetPGainScaleFactor)
    i.imuIsAccelerometerHealthy              0x08008768   Section        0  imu.o(i.imuIsAccelerometerHealthy)
    imuIsAccelerometerHealthy                0x08008769   Thumb Code    60  imu.o(i.imuIsAccelerometerHealthy)
    i.imuMahonyAHRSupdate                    0x080087ac   Section        0  imu.o(i.imuMahonyAHRSupdate)
    imuMahonyAHRSupdate                      0x080087ad   Thumb Code  1054  imu.o(i.imuMahonyAHRSupdate)
    i.imuTransformVectorBodyToEarth          0x08008bf8   Section        0  imu.o(i.imuTransformVectorBodyToEarth)
    i.imuUpdateEulerAngles                   0x08008c98   Section        0  imu.o(i.imuUpdateEulerAngles)
    i.imuUseFastGains                        0x08008d5c   Section        0  imu.o(i.imuUseFastGains)
    imuUseFastGains                          0x08008d5d   Thumb Code    30  imu.o(i.imuUseFastGains)
    i.imu_init                               0x08008d80   Section        0  imu.o(i.imu_init)
    i.invSqrt                                0x08008dd4   Section        0  mlib.o(i.invSqrt)
    i.led_ctrl                               0x08008e20   Section        0  led.o(i.led_ctrl)
    i.led_init                               0x08008eb8   Section        0  led.o(i.led_init)
    i.led_off                                0x08008ec8   Section        0  led.o(i.led_off)
    i.led_on                                 0x08008f04   Section        0  led.o(i.led_on)
    i.led_reverse                            0x08008f40   Section        0  led.o(i.led_reverse)
    i.lrintf                                 0x08008f90   Section        0  lrintf.o(i.lrintf)
    i.main                                   0x08008fc4   Section        0  main.o(i.main)
    i.max                                    0x080091ac   Section        0  mlib.o(i.max)
    i.micros16                               0x080091bc   Section        0  ticks.o(i.micros16)
    i.motor_init                             0x080091d0   Section        0  motor.o(i.motor_init)
    i.motor_pwm_output                       0x080091e8   Section        0  motor.o(i.motor_pwm_output)
    i.mpu6050FindRevision                    0x0800921c   Section        0  mpu6050.o(i.mpu6050FindRevision)
    mpu6050FindRevision                      0x0800921d   Thumb Code   184  mpu6050.o(i.mpu6050FindRevision)
    i.mpu6050_init                           0x08009310   Section        0  mpu6050.o(i.mpu6050_init)
    i.mpu6050_read                           0x08009398   Section        0  mpu6050.o(i.mpu6050_read)
    i.msp                                    0x08009478   Section        0  msp.o(i.msp)
    i.opflow_init                            0x080095a4   Section        0  opflow.o(i.opflow_init)
    i.opflow_uart_init                       0x080095c0   Section        0  uart.o(i.opflow_uart_init)
    i.pid                                    0x08009608   Section        0  pid.o(i.pid)
    i.powf                                   0x08009b10   Section        0  powf.o(i.powf)
    i.pt1FilterApply                         0x0800a130   Section        0  filter.o(i.pt1FilterApply)
    i.pt1FilterInit                          0x0800a16c   Section        0  filter.o(i.pt1FilterInit)
    i.quickMedianFilter5                     0x0800a19c   Section        0  mlib.o(i.quickMedianFilter5)
    i.read_calibration_coefficients          0x0800a290   Section        0  spl06.o(i.read_calibration_coefficients)
    read_calibration_coefficients            0x0800a291   Thumb Code   310  spl06.o(i.read_calibration_coefficients)
    i.send_ack                               0x0800a3d0   Section        0  iap.o(i.send_ack)
    i.serial_available                       0x0800a418   Section        0  uart.o(i.serial_available)
    i.serial_read_rx_fifo                    0x0800a438   Section        0  uart.o(i.serial_read_rx_fifo)
    i.serial_write_buffer                    0x0800a464   Section        0  uart.o(i.serial_write_buffer)
    i.serial_write_tx_fifo                   0x0800a484   Section        0  uart.o(i.serial_write_tx_fifo)
    i.sin_approx                             0x0800a4b4   Section        0  mlib.o(i.sin_approx)
    i.sinf                                   0x0800a5b4   Section        0  sinf.o(i.sinf)
    i.soft_i2c_buffer_read                   0x0800a73c   Section        0  i2c_soft.o(i.soft_i2c_buffer_read)
    i.soft_i2c_delay                         0x0800a7ae   Section        0  i2c_soft.o(i.soft_i2c_delay)
    soft_i2c_delay                           0x0800a7af   Thumb Code    16  i2c_soft.o(i.soft_i2c_delay)
    i.soft_i2c_init                          0x0800a7c0   Section        0  i2c_soft.o(i.soft_i2c_init)
    i.soft_i2c_read                          0x0800a7d8   Section        0  i2c_soft.o(i.soft_i2c_read)
    i.soft_i2c_read_reg                      0x0800a850   Section        0  i2c_soft.o(i.soft_i2c_read_reg)
    i.soft_i2c_start                         0x0800a88c   Section        0  i2c_soft.o(i.soft_i2c_start)
    i.soft_i2c_stop                          0x0800a8bc   Section        0  i2c_soft.o(i.soft_i2c_stop)
    i.soft_i2c_write                         0x0800a8e4   Section        0  i2c_soft.o(i.soft_i2c_write)
    i.soft_i2c_write_reg                     0x0800a958   Section        0  i2c_soft.o(i.soft_i2c_write_reg)
    i.spl06Detect                            0x0800a984   Section        0  spl06.o(i.spl06Detect)
    i.spl06_calculate                        0x0800aa00   Section        0  spl06.o(i.spl06_calculate)
    i.spl06_compensate_pressure              0x0800aa4c   Section        0  spl06.o(i.spl06_compensate_pressure)
    spl06_compensate_pressure                0x0800aa4d   Thumb Code   252  spl06.o(i.spl06_compensate_pressure)
    i.spl06_compensate_temperature           0x0800ab4c   Section        0  spl06.o(i.spl06_compensate_temperature)
    spl06_compensate_temperature             0x0800ab4d   Thumb Code    92  spl06.o(i.spl06_compensate_temperature)
    i.spl06_configure_measurements           0x0800abac   Section        0  spl06.o(i.spl06_configure_measurements)
    spl06_configure_measurements             0x0800abad   Thumb Code    76  spl06.o(i.spl06_configure_measurements)
    i.spl06_raw_value_scale_factor           0x0800abf8   Section        0  spl06.o(i.spl06_raw_value_scale_factor)
    spl06_raw_value_scale_factor             0x0800abf9   Thumb Code    94  spl06.o(i.spl06_raw_value_scale_factor)
    i.spl06_read_pressure                    0x0800ac58   Section        0  spl06.o(i.spl06_read_pressure)
    spl06_read_pressure                      0x0800ac59   Thumb Code    76  spl06.o(i.spl06_read_pressure)
    i.spl06_read_temperature                 0x0800aca8   Section        0  spl06.o(i.spl06_read_temperature)
    spl06_read_temperature                   0x0800aca9   Thumb Code    76  spl06.o(i.spl06_read_temperature)
    i.spl06_samples_to_cfg_reg_value         0x0800acf8   Section        0  spl06.o(i.spl06_samples_to_cfg_reg_value)
    spl06_samples_to_cfg_reg_value           0x0800acf9   Thumb Code    78  spl06.o(i.spl06_samples_to_cfg_reg_value)
    i.spl06_start_pressure_measurement       0x0800ad46   Section        0  spl06.o(i.spl06_start_pressure_measurement)
    spl06_start_pressure_measurement         0x0800ad47   Thumb Code    22  spl06.o(i.spl06_start_pressure_measurement)
    i.spl06_start_temperature_measurement    0x0800ad5c   Section        0  spl06.o(i.spl06_start_temperature_measurement)
    spl06_start_temperature_measurement      0x0800ad5d   Thumb Code    22  spl06.o(i.spl06_start_temperature_measurement)
    i.sqrtf                                  0x0800ad72   Section        0  sqrtf.o(i.sqrtf)
    i.ticks_callback                         0x0800ada0   Section        0  ticks.o(i.ticks_callback)
    i.ticks_init                             0x0800ae54   Section        0  ticks.o(i.ticks_init)
    i.ticks_stop                             0x0800ae68   Section        0  ticks.o(i.ticks_stop)
    i.to_euler                               0x0800ae78   Section        0  imu.o(i.to_euler)
    i.uart_send_data                         0x0800afa4   Section        0  uart.o(i.uart_send_data)
    .constdata                               0x0800afb8   Section      320  powf.o(.constdata)
    table                                    0x0800afb8   Data         128  powf.o(.constdata)
    powersof2to1over16top                    0x0800b038   Data          64  powf.o(.constdata)
    powersof2to1over16bot                    0x0800b078   Data          64  powf.o(.constdata)
    powersof2to1over16all                    0x0800b0b8   Data          64  powf.o(.constdata)
    .constdata                               0x0800b0f8   Section       32  rredf.o(.constdata)
    twooverpi                                0x0800b0f8   Data          32  rredf.o(.constdata)
    .data                                    0x20000000   Section        3  led.o(.data)
    ledCnt                                   0x20000001   Data           1  led.o(.data)
    ledindex                                 0x20000002   Data           1  led.o(.data)
    .data                                    0x20000004   Section        3  ticks.o(.data)
    delayTimer                               0x20000004   Data           2  ticks.o(.data)
    _cnt20ms                                 0x20000006   Data           1  ticks.o(.data)
    .data                                    0x20000007   Section        1  i2c_soft.o(.data)
    .data                                    0x20000008   Section       28  iap.o(.data)
    pack_index_last                          0x2000000e   Data           1  iap.o(.data)
    pack_atleastonce                         0x2000000f   Data           1  iap.o(.data)
    receive_cnt                              0x20000010   Data           4  iap.o(.data)
    rx_nunber                                0x20000014   Data           2  iap.o(.data)
    .data                                    0x20000024   Section        2  main.o(.data)
    .data                                    0x20000026   Section       20  stm32f10x_rcc.o(.data)
    APBAHBPrescTable                         0x20000026   Data          16  stm32f10x_rcc.o(.data)
    ADCPrescTable                            0x20000036   Data           4  stm32f10x_rcc.o(.data)
    .data                                    0x2000003c   Section        4  hw_timer.o(.data)
    pTickCallback                            0x2000003c   Data           4  hw_timer.o(.data)
    .data                                    0x20000040   Section        8  msp.o(.data)
    pack_index_last                          0x20000040   Data           1  msp.o(.data)
    pack_atleastonce                         0x20000041   Data           1  msp.o(.data)
    receive_cnt                              0x20000044   Data           4  msp.o(.data)
    .data                                    0x20000048   Section       17  mpu6050.o(.data)
    _mpu_half_resolution                     0x20000058   Data           1  mpu6050.o(.data)
    .data                                    0x2000005c   Section       18  accgyro.o(.data)
    count                                    0x20000064   Data           2  accgyro.o(.data)
    gyroCalInit                              0x20000066   Data           1  accgyro.o(.data)
    count                                    0x20000068   Data           2  accgyro.o(.data)
    accCalInit                               0x2000006a   Data           1  accgyro.o(.data)
    printfcnt                                0x2000006b   Data           1  accgyro.o(.data)
    previousTime                             0x2000006c   Data           2  accgyro.o(.data)
    .data                                    0x20000070   Section       52  imu.o(.data)
    imuConfig                                0x20000088   Data           8  imu.o(.data)
    imuRuntimeConfig                         0x20000090   Data           4  imu.o(.data)
    integralFBx                              0x20000094   Data           4  imu.o(.data)
    integralFBy                              0x20000098   Data           4  imu.o(.data)
    integralFBz                              0x2000009c   Data           4  imu.o(.data)
    previousIMUUpdateTime                    0x200000a0   Data           2  imu.o(.data)
    previousTime                             0x200000a2   Data           2  imu.o(.data)
    .data                                    0x200000a4   Section       20  barometer.o(.data)
    baroSensorReady                          0x200000b0   Data           1  barometer.o(.data)
    baroUpdateCyc                            0x200000b1   Data           1  barometer.o(.data)
    baroUptEnum                              0x200000b2   Data           1  barometer.o(.data)
    _init                                    0x200000b3   Data           1  barometer.o(.data)
    _baroGroundAltitude                      0x200000b4   Data           4  barometer.o(.data)
    .data                                    0x200000b8   Section        8  spl06.o(.data)
    spl06_pressure_raw                       0x200000b8   Data           4  spl06.o(.data)
    spl06_temperature_raw                    0x200000bc   Data           4  spl06.o(.data)
    .data                                    0x200000c0   Section      128  opflow.o(.data)
    pixel_flow_integral_last                 0x20000104   Data           4  opflow.o(.data)
    lastTimeForPixel                         0x20000108   Data           2  opflow.o(.data)
    setVelOpticalflow                        0x2000010c   Data           8  opflow.o(.data)
    VelCurrent                               0x20000114   Data           8  opflow.o(.data)
    lastError                                0x2000011c   Data           8  opflow.o(.data)
    errorOpitalflowVelI                      0x20000124   Data           8  opflow.o(.data)
    delta1                                   0x2000012c   Data           8  opflow.o(.data)
    delta2                                   0x20000134   Data           8  opflow.o(.data)
    stickTimer                               0x2000013c   Data           4  opflow.o(.data)
    .data                                    0x20000140   Section      180  altitude.o(.data)
    currentFilterSampleIndex                 0x200001d4   Data           2  altitude.o(.data)
    medianFilterReady                        0x200001d6   Data           1  altitude.o(.data)
    baroHistIdx                              0x200001d8   Data           2  altitude.o(.data)
    indexplus1                               0x200001da   Data           2  altitude.o(.data)
    bBaroSumReady                            0x200001dc   Data           2  altitude.o(.data)
    baroPressureSum                          0x200001e0   Data           4  altitude.o(.data)
    baroGroundPressure                       0x200001e4   Data           4  altitude.o(.data)
    previousT                                0x200001e8   Data           4  altitude.o(.data)
    errorVelocityI                           0x200001ec   Data           4  altitude.o(.data)
    velErrorLast                             0x200001f0   Data           4  altitude.o(.data)
    .data                                    0x200001f4   Section       19  decode.o(.data)
    armCheckEnb                              0x20000206   Data           1  decode.o(.data)
    .data                                    0x20000208   Section        4  fc.o(.data)
    previousIMUUpdateTime                    0x2000020a   Data           2  fc.o(.data)
    .data                                    0x2000020c   Section        8  motor.o(.data)
    .data                                    0x20000214   Section        4  stdout.o(.data)
    .data                                    0x20000218   Section        4  errno.o(.data)
    _errno                                   0x20000218   Data           4  errno.o(.data)
    .bss                                     0x2000021c   Section      580  uart.o(.bss)
    debugUartRxbuf                           0x20000238   Data         266  uart.o(.bss)
    debugUartTxbuf                           0x20000342   Data         128  uart.o(.bss)
    opflowUartRxbuf                          0x200003e0   Data          64  uart.o(.bss)
    opflowUartTxbuf                          0x20000420   Data          64  uart.o(.bss)
    .bss                                     0x20000460   Section     2320  iap.o(.bss)
    .bss                                     0x20000d70   Section       24  hw_uart.o(.bss)
    .bss                                     0x20000d88   Section      264  accgyro.o(.bss)
    gyroFilter                               0x20000de8   Data          36  accgyro.o(.bss)
    accFilter                                0x20000e0c   Data          84  accgyro.o(.bss)
    gyroSum                                  0x20000e60   Data          12  accgyro.o(.bss)
    gyroInit                                 0x20000e6c   Data          12  accgyro.o(.bss)
    accSum                                   0x20000e78   Data          12  accgyro.o(.bss)
    gyroInit                                 0x20000e84   Data          12  accgyro.o(.bss)
    .bss                                     0x20000e90   Section       48  imu.o(.bss)
    rMat                                     0x20000e90   Data          36  imu.o(.bss)
    .bss                                     0x20000ec0   Section       24  barometer.o(.bss)
    .bss                                     0x20000ed8   Section       24  spl06.o(.bss)
    .bss                                     0x20000ef0   Section       84  altitude.o(.bss)
    barometerFilterSamples                   0x20000f14   Data          20  altitude.o(.bss)
    baroHistTab                              0x20000f28   Data          28  altitude.o(.bss)
    .bss                                     0x20000f44   Section       10  decode.o(.bss)
    .bss                                     0x20000f50   Section      116  pid.o(.bss)
    last_rate                                0x20000f94   Data          12  pid.o(.bss)
    rate_i                                   0x20000fa0   Data          12  pid.o(.bss)
    delta1                                   0x20000fac   Data          12  pid.o(.bss)
    delta2                                   0x20000fb8   Data          12  pid.o(.bss)
    STACK                                    0x20000fc8   Section     1024  startup_stm32f10x_hd_vl.o(STACK)

    Global Symbols

    Symbol Name                              Value     Ov Type        Size  Object(Section)

    BuildAttributes$$THM_ISAv4$P$D$K$B$S$PE$A:L22UL41UL21$X:L11$S22US41US21$IEEE1$IW$USESV6$~STKCKD$USESV7$~SHL$OTIME$ROPI$IEEEX$EBA8$MICROLIB$REQ8$PRES8$EABIv2 0x00000000   Number         0  anon$$obj.o ABSOLUTE
    __ARM_use_no_argv                        0x00000000   Number         0  main.o ABSOLUTE
    _printf_a                                0x00000000   Number         0  stubs.o ABSOLUTE
    _printf_c                                0x00000000   Number         0  stubs.o ABSOLUTE
    _printf_charcount                        0x00000000   Number         0  stubs.o ABSOLUTE
    _printf_d                                0x00000000   Number         0  stubs.o ABSOLUTE
    _printf_e                                0x00000000   Number         0  stubs.o ABSOLUTE
    _printf_f                                0x00000000   Number         0  stubs.o ABSOLUTE
    _printf_flags                            0x00000000   Number         0  stubs.o ABSOLUTE
    _printf_fp_dec                           0x00000000   Number         0  stubs.o ABSOLUTE
    _printf_fp_hex                           0x00000000   Number         0  stubs.o ABSOLUTE
    _printf_g                                0x00000000   Number         0  stubs.o ABSOLUTE
    _printf_i                                0x00000000   Number         0  stubs.o ABSOLUTE
    _printf_int_dec                          0x00000000   Number         0  stubs.o ABSOLUTE
    _printf_l                                0x00000000   Number         0  stubs.o ABSOLUTE
    _printf_lc                               0x00000000   Number         0  stubs.o ABSOLUTE
    _printf_ll                               0x00000000   Number         0  stubs.o ABSOLUTE
    _printf_lld                              0x00000000   Number         0  stubs.o ABSOLUTE
    _printf_lli                              0x00000000   Number         0  stubs.o ABSOLUTE
    _printf_llo                              0x00000000   Number         0  stubs.o ABSOLUTE
    _printf_llu                              0x00000000   Number         0  stubs.o ABSOLUTE
    _printf_llx                              0x00000000   Number         0  stubs.o ABSOLUTE
    _printf_longlong_dec                     0x00000000   Number         0  stubs.o ABSOLUTE
    _printf_longlong_hex                     0x00000000   Number         0  stubs.o ABSOLUTE
    _printf_longlong_oct                     0x00000000   Number         0  stubs.o ABSOLUTE
    _printf_ls                               0x00000000   Number         0  stubs.o ABSOLUTE
    _printf_mbtowc                           0x00000000   Number         0  stubs.o ABSOLUTE
    _printf_n                                0x00000000   Number         0  stubs.o ABSOLUTE
    _printf_o                                0x00000000   Number         0  stubs.o ABSOLUTE
    _printf_p                                0x00000000   Number         0  stubs.o ABSOLUTE
    _printf_percent                          0x00000000   Number         0  stubs.o ABSOLUTE
    _printf_pre_padding                      0x00000000   Number         0  stubs.o ABSOLUTE
    _printf_return_value                     0x00000000   Number         0  stubs.o ABSOLUTE
    _printf_s                                0x00000000   Number         0  stubs.o ABSOLUTE
    _printf_sizespec                         0x00000000   Number         0  stubs.o ABSOLUTE
    _printf_str                              0x00000000   Number         0  stubs.o ABSOLUTE
    _printf_truncate_signed                  0x00000000   Number         0  stubs.o ABSOLUTE
    _printf_truncate_unsigned                0x00000000   Number         0  stubs.o ABSOLUTE
    _printf_u                                0x00000000   Number         0  stubs.o ABSOLUTE
    _printf_wc                               0x00000000   Number         0  stubs.o ABSOLUTE
    _printf_wctomb                           0x00000000   Number         0  stubs.o ABSOLUTE
    _printf_widthprec                        0x00000000   Number         0  stubs.o ABSOLUTE
    _printf_x                                0x00000000   Number         0  stubs.o ABSOLUTE
    __cpp_initialize__aeabi_                  - Undefined Weak Reference
    __cxa_finalize                            - Undefined Weak Reference
    _clock_init                               - Undefined Weak Reference
    _microlib_exit                            - Undefined Weak Reference
    __Vectors_Size                           0x00000134   Number         0  startup_stm32f10x_hd_vl.o ABSOLUTE
    __Vectors                                0x08004000   Data           4  startup_stm32f10x_hd_vl.o(RESET)
    __Vectors_End                            0x08004134   Data           0  startup_stm32f10x_hd_vl.o(RESET)
    __main                                   0x08004135   Thumb Code     0  entry.o(.ARM.Collect$$$$00000000)
    _main_stk                                0x08004135   Thumb Code     0  entry2.o(.ARM.Collect$$$$00000001)
    _main_scatterload                        0x08004139   Thumb Code     0  entry5.o(.ARM.Collect$$$$00000004)
    __main_after_scatterload                 0x0800413d   Thumb Code     0  entry5.o(.ARM.Collect$$$$00000004)
    _main_clock                              0x0800413d   Thumb Code     0  entry7b.o(.ARM.Collect$$$$00000008)
    _main_cpp_init                           0x0800413d   Thumb Code     0  entry8b.o(.ARM.Collect$$$$0000000A)
    _main_init                               0x0800413d   Thumb Code     0  entry9a.o(.ARM.Collect$$$$0000000B)
    __rt_final_cpp                           0x08004145   Thumb Code     0  entry10a.o(.ARM.Collect$$$$0000000D)
    __rt_final_exit                          0x08004145   Thumb Code     0  entry11a.o(.ARM.Collect$$$$0000000F)
    Reset_Handler                            0x08004149   Thumb Code     8  startup_stm32f10x_hd_vl.o(.text)
    NMI_Handler                              0x08004151   Thumb Code     2  startup_stm32f10x_hd_vl.o(.text)
    HardFault_Handler                        0x08004153   Thumb Code     2  startup_stm32f10x_hd_vl.o(.text)
    MemManage_Handler                        0x08004155   Thumb Code     2  startup_stm32f10x_hd_vl.o(.text)
    BusFault_Handler                         0x08004157   Thumb Code     2  startup_stm32f10x_hd_vl.o(.text)
    UsageFault_Handler                       0x08004159   Thumb Code     2  startup_stm32f10x_hd_vl.o(.text)
    SVC_Handler                              0x0800415b   Thumb Code     2  startup_stm32f10x_hd_vl.o(.text)
    DebugMon_Handler                         0x0800415d   Thumb Code     2  startup_stm32f10x_hd_vl.o(.text)
    PendSV_Handler                           0x0800415f   Thumb Code     2  startup_stm32f10x_hd_vl.o(.text)
    SysTick_Handler                          0x08004161   Thumb Code     2  startup_stm32f10x_hd_vl.o(.text)
    ADC1_IRQHandler                          0x08004163   Thumb Code     0  startup_stm32f10x_hd_vl.o(.text)
    CEC_IRQHandler                           0x08004163   Thumb Code     0  startup_stm32f10x_hd_vl.o(.text)
    DMA1_Channel1_IRQHandler                 0x08004163   Thumb Code     0  startup_stm32f10x_hd_vl.o(.text)
    DMA1_Channel2_IRQHandler                 0x08004163   Thumb Code     0  startup_stm32f10x_hd_vl.o(.text)
    DMA1_Channel3_IRQHandler                 0x08004163   Thumb Code     0  startup_stm32f10x_hd_vl.o(.text)
    DMA1_Channel4_IRQHandler                 0x08004163   Thumb Code     0  startup_stm32f10x_hd_vl.o(.text)
    DMA1_Channel5_IRQHandler                 0x08004163   Thumb Code     0  startup_stm32f10x_hd_vl.o(.text)
    DMA1_Channel6_IRQHandler                 0x08004163   Thumb Code     0  startup_stm32f10x_hd_vl.o(.text)
    DMA1_Channel7_IRQHandler                 0x08004163   Thumb Code     0  startup_stm32f10x_hd_vl.o(.text)
    DMA2_Channel1_IRQHandler                 0x08004163   Thumb Code     0  startup_stm32f10x_hd_vl.o(.text)
    DMA2_Channel2_IRQHandler                 0x08004163   Thumb Code     0  startup_stm32f10x_hd_vl.o(.text)
    DMA2_Channel3_IRQHandler                 0x08004163   Thumb Code     0  startup_stm32f10x_hd_vl.o(.text)
    DMA2_Channel4_5_IRQHandler               0x08004163   Thumb Code     0  startup_stm32f10x_hd_vl.o(.text)
    DMA2_Channel5_IRQHandler                 0x08004163   Thumb Code     0  startup_stm32f10x_hd_vl.o(.text)
    EXTI0_IRQHandler                         0x08004163   Thumb Code     0  startup_stm32f10x_hd_vl.o(.text)
    EXTI15_10_IRQHandler                     0x08004163   Thumb Code     0  startup_stm32f10x_hd_vl.o(.text)
    EXTI1_IRQHandler                         0x08004163   Thumb Code     0  startup_stm32f10x_hd_vl.o(.text)
    EXTI2_IRQHandler                         0x08004163   Thumb Code     0  startup_stm32f10x_hd_vl.o(.text)
    EXTI3_IRQHandler                         0x08004163   Thumb Code     0  startup_stm32f10x_hd_vl.o(.text)
    EXTI4_IRQHandler                         0x08004163   Thumb Code     0  startup_stm32f10x_hd_vl.o(.text)
    EXTI9_5_IRQHandler                       0x08004163   Thumb Code     0  startup_stm32f10x_hd_vl.o(.text)
    FLASH_IRQHandler                         0x08004163   Thumb Code     0  startup_stm32f10x_hd_vl.o(.text)
    I2C1_ER_IRQHandler                       0x08004163   Thumb Code     0  startup_stm32f10x_hd_vl.o(.text)
    I2C1_EV_IRQHandler                       0x08004163   Thumb Code     0  startup_stm32f10x_hd_vl.o(.text)
    I2C2_ER_IRQHandler                       0x08004163   Thumb Code     0  startup_stm32f10x_hd_vl.o(.text)
    I2C2_EV_IRQHandler                       0x08004163   Thumb Code     0  startup_stm32f10x_hd_vl.o(.text)
    PVD_IRQHandler                           0x08004163   Thumb Code     0  startup_stm32f10x_hd_vl.o(.text)
    RCC_IRQHandler                           0x08004163   Thumb Code     0  startup_stm32f10x_hd_vl.o(.text)
    RTCAlarm_IRQHandler                      0x08004163   Thumb Code     0  startup_stm32f10x_hd_vl.o(.text)
    RTC_IRQHandler                           0x08004163   Thumb Code     0  startup_stm32f10x_hd_vl.o(.text)
    SPI1_IRQHandler                          0x08004163   Thumb Code     0  startup_stm32f10x_hd_vl.o(.text)
    SPI2_IRQHandler                          0x08004163   Thumb Code     0  startup_stm32f10x_hd_vl.o(.text)
    SPI3_IRQHandler                          0x08004163   Thumb Code     0  startup_stm32f10x_hd_vl.o(.text)
    TAMPER_IRQHandler                        0x08004163   Thumb Code     0  startup_stm32f10x_hd_vl.o(.text)
    TIM12_IRQHandler                         0x08004163   Thumb Code     0  startup_stm32f10x_hd_vl.o(.text)
    TIM13_IRQHandler                         0x08004163   Thumb Code     0  startup_stm32f10x_hd_vl.o(.text)
    TIM14_IRQHandler                         0x08004163   Thumb Code     0  startup_stm32f10x_hd_vl.o(.text)
    TIM1_BRK_TIM15_IRQHandler                0x08004163   Thumb Code     0  startup_stm32f10x_hd_vl.o(.text)
    TIM1_CC_IRQHandler                       0x08004163   Thumb Code     0  startup_stm32f10x_hd_vl.o(.text)
    TIM1_TRG_COM_TIM17_IRQHandler            0x08004163   Thumb Code     0  startup_stm32f10x_hd_vl.o(.text)
    TIM1_UP_TIM16_IRQHandler                 0x08004163   Thumb Code     0  startup_stm32f10x_hd_vl.o(.text)
    TIM3_IRQHandler                          0x08004163   Thumb Code     0  startup_stm32f10x_hd_vl.o(.text)
    TIM4_IRQHandler                          0x08004163   Thumb Code     0  startup_stm32f10x_hd_vl.o(.text)
    TIM5_IRQHandler                          0x08004163   Thumb Code     0  startup_stm32f10x_hd_vl.o(.text)
    TIM6_DAC_IRQHandler                      0x08004163   Thumb Code     0  startup_stm32f10x_hd_vl.o(.text)
    TIM7_IRQHandler                          0x08004163   Thumb Code     0  startup_stm32f10x_hd_vl.o(.text)
    UART4_IRQHandler                         0x08004163   Thumb Code     0  startup_stm32f10x_hd_vl.o(.text)
    UART5_IRQHandler                         0x08004163   Thumb Code     0  startup_stm32f10x_hd_vl.o(.text)
    USART2_IRQHandler                        0x08004163   Thumb Code     0  startup_stm32f10x_hd_vl.o(.text)
    WWDG_IRQHandler                          0x08004163   Thumb Code     0  startup_stm32f10x_hd_vl.o(.text)
    __aeabi_memset                           0x0800416d   Thumb Code    14  memseta.o(.text)
    __aeabi_memset4                          0x0800416d   Thumb Code     0  memseta.o(.text)
    __aeabi_memset8                          0x0800416d   Thumb Code     0  memseta.o(.text)
    __aeabi_memclr                           0x0800417b   Thumb Code     4  memseta.o(.text)
    __aeabi_memclr4                          0x0800417b   Thumb Code     0  memseta.o(.text)
    __aeabi_memclr8                          0x0800417b   Thumb Code     0  memseta.o(.text)
    _memset$wrapper                          0x0800417f   Thumb Code    18  memseta.o(.text)
    __aeabi_fadd                             0x08004191   Thumb Code   164  fadd.o(.text)
    __aeabi_fsub                             0x08004235   Thumb Code     6  fadd.o(.text)
    __aeabi_frsub                            0x0800423b   Thumb Code     6  fadd.o(.text)
    __aeabi_fmul                             0x08004241   Thumb Code   100  fmul.o(.text)
    __aeabi_fdiv                             0x080042a5   Thumb Code   124  fdiv.o(.text)
    __aeabi_dmul                             0x08004321   Thumb Code   228  dmul.o(.text)
    __aeabi_i2f                              0x08004405   Thumb Code    18  fflti.o(.text)
    __aeabi_ui2f                             0x08004417   Thumb Code    10  ffltui.o(.text)
    __aeabi_ui2d                             0x08004421   Thumb Code    26  dfltui.o(.text)
    __aeabi_f2iz                             0x0800443b   Thumb Code    50  ffixi.o(.text)
    __aeabi_f2d                              0x0800446d   Thumb Code    38  f2d.o(.text)
    __aeabi_d2f                              0x08004493   Thumb Code    56  d2f.o(.text)
    __aeabi_cfcmpeq                          0x080044cd   Thumb Code     0  cfcmple.o(.text)
    __aeabi_cfcmple                          0x080044cd   Thumb Code    20  cfcmple.o(.text)
    __aeabi_cfrcmple                         0x080044e1   Thumb Code    20  cfrcmple.o(.text)
    __aeabi_uidiv                            0x080044f5   Thumb Code     0  uidiv.o(.text)
    __aeabi_uidivmod                         0x080044f5   Thumb Code    44  uidiv.o(.text)
    __aeabi_uldivmod                         0x08004521   Thumb Code    98  uldiv.o(.text)
    __I$use$fp                               0x08004583   Thumb Code     0  iusefp.o(.text)
    _float_round                             0x08004583   Thumb Code    18  fepilogue.o(.text)
    _float_epilogue                          0x08004595   Thumb Code    92  fepilogue.o(.text)
    __ARM_scalbnf                            0x080045f1   Thumb Code    24  fscalb.o(.text)
    scalbnf                                  0x080045f1   Thumb Code     0  fscalb.o(.text)
    _fsqrt                                   0x08004609   Thumb Code    94  fsqrt.o(.text)
    _frnd                                    0x08004667   Thumb Code    60  frnd.o(.text)
    _double_round                            0x080046a3   Thumb Code    30  depilogue.o(.text)
    _double_epilogue                         0x080046c1   Thumb Code   156  depilogue.o(.text)
    __aeabi_dadd                             0x0800475d   Thumb Code   322  dadd.o(.text)
    __aeabi_dsub                             0x0800489f   Thumb Code     6  dadd.o(.text)
    __aeabi_drsub                            0x080048a5   Thumb Code     6  dadd.o(.text)
    __aeabi_ddiv                             0x080048ab   Thumb Code   222  ddiv.o(.text)
    __aeabi_d2ulz                            0x08004989   Thumb Code    48  dfixul.o(.text)
    _ffix_r                                  0x080049b9   Thumb Code    76  ffixir.o(.text)
    __aeabi_cdrcmple                         0x08004a05   Thumb Code    48  cdrcmple.o(.text)
    __fp_status                              0x08004a35   Thumb Code     4  fpstat.o(.text)
    __ieee_status                            0x08004a35   Thumb Code     0  fpstat.o(.text)
    __scatterload                            0x08004a39   Thumb Code    28  init.o(.text)
    __scatterload_rt2                        0x08004a39   Thumb Code     0  init.o(.text)
    __aeabi_llsl                             0x08004a5d   Thumb Code    30  llshl.o(.text)
    _ll_shift_l                              0x08004a5d   Thumb Code     0  llshl.o(.text)
    __aeabi_llsr                             0x08004a7b   Thumb Code    32  llushr.o(.text)
    _ll_ushift_r                             0x08004a7b   Thumb Code     0  llushr.o(.text)
    __aeabi_lasr                             0x08004a9b   Thumb Code    36  llsshr.o(.text)
    _ll_sshift_r                             0x08004a9b   Thumb Code     0  llsshr.o(.text)
    __decompress                             0x08004abf   Thumb Code     0  __dczerorl2.o(.text)
    __decompress1                            0x08004abf   Thumb Code    86  __dczerorl2.o(.text)
    FLASH_ClearFlag                          0x08004b15   Thumb Code     6  stm32f10x_flash.o(i.FLASH_ClearFlag)
    FLASH_ErasePage                          0x08004b21   Thumb Code    72  stm32f10x_flash.o(i.FLASH_ErasePage)
    FLASH_GetBank1Status                     0x08004b6d   Thumb Code    48  stm32f10x_flash.o(i.FLASH_GetBank1Status)
    FLASH_Lock                               0x08004ba1   Thumb Code    14  stm32f10x_flash.o(i.FLASH_Lock)
    FLASH_PrefetchBufferCmd                  0x08004bb5   Thumb Code    22  stm32f10x_flash.o(i.FLASH_PrefetchBufferCmd)
    FLASH_ProgramWord                        0x08004bd1   Thumb Code   102  stm32f10x_flash.o(i.FLASH_ProgramWord)
    FLASH_ReadWord                           0x08004c3d   Thumb Code     6  iap.o(i.FLASH_ReadWord)
    FLASH_SetLatency                         0x08004c45   Thumb Code    18  stm32f10x_flash.o(i.FLASH_SetLatency)
    FLASH_Unlock                             0x08004c5d   Thumb Code    12  stm32f10x_flash.o(i.FLASH_Unlock)
    FLASH_WaitForLastOperation               0x08004c75   Thumb Code    38  stm32f10x_flash.o(i.FLASH_WaitForLastOperation)
    GPIO_Init                                0x08004c9b   Thumb Code   278  stm32f10x_gpio.o(i.GPIO_Init)
    GPIO_PinRemapConfig                      0x08004db1   Thumb Code   138  stm32f10x_gpio.o(i.GPIO_PinRemapConfig)
    NVIC_Init                                0x08004eb9   Thumb Code   100  misc.o(i.NVIC_Init)
    NVIC_PriorityGroupConfig                 0x08004f29   Thumb Code    10  misc.o(i.NVIC_PriorityGroupConfig)
    RCC_APB1PeriphClockCmd                   0x08004f3d   Thumb Code    26  stm32f10x_rcc.o(i.RCC_APB1PeriphClockCmd)
    RCC_APB2PeriphClockCmd                   0x08004f5d   Thumb Code    26  stm32f10x_rcc.o(i.RCC_APB2PeriphClockCmd)
    RCC_DeInit                               0x08005009   Thumb Code    64  stm32f10x_rcc.o(i.RCC_DeInit)
    RCC_GetClocksFreq                        0x08005055   Thumb Code   192  stm32f10x_rcc.o(i.RCC_GetClocksFreq)
    RCC_GetFlagStatus                        0x08005129   Thumb Code    56  stm32f10x_rcc.o(i.RCC_GetFlagStatus)
    RCC_GetSYSCLKSource                      0x08005165   Thumb Code    10  stm32f10x_rcc.o(i.RCC_GetSYSCLKSource)
    RCC_HCLKConfig                           0x08005175   Thumb Code    18  stm32f10x_rcc.o(i.RCC_HCLKConfig)
    RCC_HSICmd                               0x0800518d   Thumb Code     6  stm32f10x_rcc.o(i.RCC_HSICmd)
    RCC_PCLK1Config                          0x08005199   Thumb Code    18  stm32f10x_rcc.o(i.RCC_PCLK1Config)
    RCC_PCLK2Config                          0x080051b1   Thumb Code    20  stm32f10x_rcc.o(i.RCC_PCLK2Config)
    RCC_PLLCmd                               0x080051c9   Thumb Code     6  stm32f10x_rcc.o(i.RCC_PLLCmd)
    RCC_PLLConfig                            0x080051d5   Thumb Code    24  stm32f10x_rcc.o(i.RCC_PLLConfig)
    RCC_SYSCLKConfig                         0x080051f1   Thumb Code    18  stm32f10x_rcc.o(i.RCC_SYSCLKConfig)
    SystemInit                               0x08005215   Thumb Code    96  system_stm32f10x.o(i.SystemInit)
    TIM2_IRQHandler                          0x0800528d   Thumb Code    18  hw_timer.o(i.TIM2_IRQHandler)
    TIM_ARRPreloadConfig                     0x080052a5   Thumb Code    24  stm32f10x_tim.o(i.TIM_ARRPreloadConfig)
    TIM_ClearITPendingBit                    0x080052bd   Thumb Code     6  stm32f10x_tim.o(i.TIM_ClearITPendingBit)
    TIM_Cmd                                  0x080052c3   Thumb Code    24  stm32f10x_tim.o(i.TIM_Cmd)
    TIM_GetCounter                           0x080052db   Thumb Code     6  stm32f10x_tim.o(i.TIM_GetCounter)
    TIM_ITConfig                             0x080052e1   Thumb Code    18  stm32f10x_tim.o(i.TIM_ITConfig)
    TIM_OC1Init                              0x080052f5   Thumb Code   132  stm32f10x_tim.o(i.TIM_OC1Init)
    TIM_OC1PreloadConfig                     0x0800538d   Thumb Code    18  stm32f10x_tim.o(i.TIM_OC1PreloadConfig)
    TIM_OC2Init                              0x080053a1   Thumb Code   154  stm32f10x_tim.o(i.TIM_OC2Init)
    TIM_OC2PreloadConfig                     0x08005445   Thumb Code    26  stm32f10x_tim.o(i.TIM_OC2PreloadConfig)
    TIM_OC3Init                              0x08005461   Thumb Code   150  stm32f10x_tim.o(i.TIM_OC3Init)
    TIM_OC3PreloadConfig                     0x08005501   Thumb Code    18  stm32f10x_tim.o(i.TIM_OC3PreloadConfig)
    TIM_OC4Init                              0x08005515   Thumb Code   114  stm32f10x_tim.o(i.TIM_OC4Init)
    TIM_OC4PreloadConfig                     0x08005591   Thumb Code    26  stm32f10x_tim.o(i.TIM_OC4PreloadConfig)
    TIM_SetCompare1                          0x080055ab   Thumb Code     4  stm32f10x_tim.o(i.TIM_SetCompare1)
    TIM_SetCompare2                          0x080055af   Thumb Code     4  stm32f10x_tim.o(i.TIM_SetCompare2)
    TIM_SetCompare3                          0x080055b3   Thumb Code     4  stm32f10x_tim.o(i.TIM_SetCompare3)
    TIM_SetCompare4                          0x080055b7   Thumb Code     6  stm32f10x_tim.o(i.TIM_SetCompare4)
    TIM_TimeBaseInit                         0x080055bd   Thumb Code   122  stm32f10x_tim.o(i.TIM_TimeBaseInit)
    USART1_IRQHandler                        0x08005661   Thumb Code   192  hw_uart.o(i.USART1_IRQHandler)
    USART3_IRQHandler                        0x08005729   Thumb Code   172  hw_uart.o(i.USART3_IRQHandler)
    USART_ClearITPendingBit                  0x080057dd   Thumb Code    30  stm32f10x_usart.o(i.USART_ClearITPendingBit)
    USART_Cmd                                0x080057fb   Thumb Code    24  stm32f10x_usart.o(i.USART_Cmd)
    USART_GetITStatus                        0x08005813   Thumb Code    84  stm32f10x_usart.o(i.USART_GetITStatus)
    USART_ITConfig                           0x08005867   Thumb Code    74  stm32f10x_usart.o(i.USART_ITConfig)
    USART_Init                               0x080058b1   Thumb Code   210  stm32f10x_usart.o(i.USART_Init)
    USART_ReceiveData                        0x08005989   Thumb Code    10  stm32f10x_usart.o(i.USART_ReceiveData)
    USART_SendData                           0x08005993   Thumb Code     8  stm32f10x_usart.o(i.USART_SendData)
    __0printf                                0x0800599d   Thumb Code    22  printfa.o(i.__0printf)
    __1printf                                0x0800599d   Thumb Code     0  printfa.o(i.__0printf)
    __2printf                                0x0800599d   Thumb Code     0  printfa.o(i.__0printf)
    __c89printf                              0x0800599d   Thumb Code     0  printfa.o(i.__0printf)
    printf                                   0x0800599d   Thumb Code     0  printfa.o(i.__0printf)
    __ARM_fpclassifyf                        0x080059bd   Thumb Code    38  fpclassifyf.o(i.__ARM_fpclassifyf)
    __mathlib_flt_divzero                    0x080059e3   Thumb Code    10  funder.o(i.__mathlib_flt_divzero)
    __mathlib_flt_infnan                     0x080059ed   Thumb Code     6  funder.o(i.__mathlib_flt_infnan)
    __mathlib_flt_infnan2                    0x080059f3   Thumb Code     4  funder.o(i.__mathlib_flt_infnan2)
    __mathlib_flt_invalid                    0x080059f7   Thumb Code     8  funder.o(i.__mathlib_flt_invalid)
    __mathlib_flt_overflow                   0x080059ff   Thumb Code    10  funder.o(i.__mathlib_flt_overflow)
    __mathlib_flt_underflow                  0x08005a09   Thumb Code    10  funder.o(i.__mathlib_flt_underflow)
    __mathlib_rredf2                         0x08005a15   Thumb Code   344  rredf.o(i.__mathlib_rredf2)
    __scatterload_copy                       0x08005b7d   Thumb Code    14  handlers.o(i.__scatterload_copy)
    __scatterload_null                       0x08005b8b   Thumb Code     2  handlers.o(i.__scatterload_null)
    __scatterload_zeroinit                   0x08005b8d   Thumb Code    14  handlers.o(i.__scatterload_zeroinit)
    __set_errno                              0x08005b9d   Thumb Code     6  errno.o(i.__set_errno)
    acc_calbration                           0x0800645d   Thumb Code   248  accgyro.o(i.acc_calbration)
    accgyro_init                             0x08006571   Thumb Code   164  accgyro.o(i.accgyro_init)
    accgyro_update                           0x08006645   Thumb Code   234  accgyro.o(i.accgyro_update)
    acos_approx                              0x0800673d   Thumb Code   128  mlib.o(i.acos_approx)
    altitude_baro_update                     0x080067d1   Thumb Code   556  altitude.o(i.altitude_baro_update)
    altitude_ctrl                            0x08006a5d   Thumb Code    26  altitude.o(i.altitude_ctrl)
    annexCode                                0x08006a7d   Thumb Code   508  decode.o(i.annexCode)
    app_flag_write                           0x08006c99   Thumb Code    50  iap.o(i.app_flag_write)
    applyBarometerMedianFilter               0x08006ccd   Thumb Code    56  altitude.o(i.applyBarometerMedianFilter)
    applyDeadband                            0x08006d11   Thumb Code    34  mlib.o(i.applyDeadband)
    apply_sensor_alignment                   0x08006d33   Thumb Code   124  alignment.o(i.apply_sensor_alignment)
    atan2_approx                             0x08006db1   Thumb Code   284  mlib.o(i.atan2_approx)
    atan2f                                   0x08006ef1   Thumb Code   528  atan2f.o(i.atan2f)
    baro_init                                0x0800714d   Thumb Code    32  barometer.o(i.baro_init)
    baro_update                              0x08007179   Thumb Code   142  barometer.o(i.baro_update)
    biquadFilterApply                        0x08007225   Thumb Code    96  filter.o(i.biquadFilterApply)
    biquadFilterInitLPF                      0x080073d1   Thumb Code    52  filter.o(i.biquadFilterInitLPF)
    cfg_init_temp                            0x08007405   Thumb Code    26  iap.o(i.cfg_init_temp)
    cfg_save_temp                            0x08007429   Thumb Code    88  iap.o(i.cfg_save_temp)
    constrain                                0x08007491   Thumb Code    14  mlib.o(i.constrain)
    constrain_float                          0x0800749f   Thumb Code    36  mlib.o(i.constrain_float)
    cosf                                     0x080074c5   Thumb Code   328  cosf.o(i.cosf)
    debug_uart_init                          0x08007641   Thumb Code    58  uart.o(i.debug_uart_init)
    decode                                   0x0800768d   Thumb Code    58  decode.o(i.decode)
    delay_ms                                 0x080076d1   Thumb Code    18  ticks.o(i.delay_ms)
    flight_ctrl                              0x08007711   Thumb Code    76  fc.o(i.flight_ctrl)
    fputc                                    0x0800776d   Thumb Code    20  uart.o(i.fputc)
    from_euler                               0x08007781   Thumb Code   304  imu.o(i.from_euler)
    getEstimatedAltitude                     0x080078b1   Thumb Code  1330  altitude.o(i.getEstimatedAltitude)
    gyro_calbration                          0x08007e09   Thumb Code   214  accgyro.o(i.gyro_calbration)
    hw_debug_uart_init                       0x08007ef5   Thumb Code   164  hw_uart.o(i.hw_debug_uart_init)
    hw_led_initialize                        0x08007fa5   Thumb Code   110  hw_led.o(i.hw_led_initialize)
    hw_opticalflow_uart_init                 0x08008019   Thumb Code   164  hw_uart.o(i.hw_opticalflow_uart_init)
    hw_soft_i2c_init                         0x080080c9   Thumb Code    60  hw_i2c_soft.o(i.hw_soft_i2c_init)
    hw_soft_i2c_sda_input                    0x08008109   Thumb Code    24  hw_i2c_soft.o(i.hw_soft_i2c_sda_input)
    hw_soft_i2c_sda_output                   0x08008125   Thumb Code    24  hw_i2c_soft.o(i.hw_soft_i2c_sda_output)
    hw_tim3_init                             0x08008141   Thumb Code   234  hw_timer.o(i.hw_tim3_init)
    hw_tim4_init                             0x08008239   Thumb Code    52  hw_timer.o(i.hw_tim4_init)
    hw_tim6_init                             0x08008271   Thumb Code    98  hw_timer.o(i.hw_tim6_init)
    iap_for_app                              0x080082d9   Thumb Code   132  iap.o(i.iap_for_app)
    iap_for_app_init                         0x0800838d   Thumb Code    38  iap.o(i.iap_for_app_init)
    imuCalculateAcceleration                 0x080083c1   Thumb Code   216  imu.o(i.imuCalculateAcceleration)
    imuCalculateEstimatedAttitude            0x080084ad   Thumb Code   270  imu.o(i.imuCalculateEstimatedAttitude)
    imuComputeRotationMatrix                 0x080085d9   Thumb Code   376  imu.o(i.imuComputeRotationMatrix)
    imuTransformVectorBodyToEarth            0x08008bf9   Thumb Code   158  imu.o(i.imuTransformVectorBodyToEarth)
    imuUpdateEulerAngles                     0x08008c99   Thumb Code   178  imu.o(i.imuUpdateEulerAngles)
    imu_init                                 0x08008d81   Thumb Code    54  imu.o(i.imu_init)
    invSqrt                                  0x08008dd5   Thumb Code    72  mlib.o(i.invSqrt)
    led_ctrl                                 0x08008e21   Thumb Code   144  led.o(i.led_ctrl)
    led_init                                 0x08008eb9   Thumb Code    14  led.o(i.led_init)
    led_off                                  0x08008ec9   Thumb Code    56  led.o(i.led_off)
    led_on                                   0x08008f05   Thumb Code    56  led.o(i.led_on)
    led_reverse                              0x08008f41   Thumb Code    74  led.o(i.led_reverse)
    lrintf                                   0x08008f91   Thumb Code    50  lrintf.o(i.lrintf)
    main                                     0x08008fc5   Thumb Code   366  main.o(i.main)
    max                                      0x080091ad   Thumb Code    14  mlib.o(i.max)
    micros16                                 0x080091bd   Thumb Code    14  ticks.o(i.micros16)
    motor_init                               0x080091d1   Thumb Code    20  motor.o(i.motor_init)
    motor_pwm_output                         0x080091e9   Thumb Code    44  motor.o(i.motor_pwm_output)
    mpu6050_init                             0x08009311   Thumb Code   134  mpu6050.o(i.mpu6050_init)
    mpu6050_read                             0x08009399   Thumb Code   206  mpu6050.o(i.mpu6050_read)
    msp                                      0x08009479   Thumb Code   278  msp.o(i.msp)
    opflow_init                              0x080095a5   Thumb Code    20  opflow.o(i.opflow_init)
    opflow_uart_init                         0x080095c1   Thumb Code    56  uart.o(i.opflow_uart_init)
    pid                                      0x08009609   Thumb Code  1264  pid.o(i.pid)
    __mathlib_powf                           0x08009b11   Thumb Code     0  powf.o(i.powf)
    powf                                     0x08009b11   Thumb Code  1548  powf.o(i.powf)
    pt1FilterApply                           0x0800a131   Thumb Code    60  filter.o(i.pt1FilterApply)
    pt1FilterInit                            0x0800a16d   Thumb Code    44  filter.o(i.pt1FilterInit)
    quickMedianFilter5                       0x0800a19d   Thumb Code   242  mlib.o(i.quickMedianFilter5)
    send_ack                                 0x0800a3d1   Thumb Code    66  iap.o(i.send_ack)
    serial_available                         0x0800a419   Thumb Code    28  uart.o(i.serial_available)
    serial_read_rx_fifo                      0x0800a439   Thumb Code    38  uart.o(i.serial_read_rx_fifo)
    serial_write_buffer                      0x0800a465   Thumb Code    30  uart.o(i.serial_write_buffer)
    serial_write_tx_fifo                     0x0800a485   Thumb Code    44  uart.o(i.serial_write_tx_fifo)
    sin_approx                               0x0800a4b5   Thumb Code   218  mlib.o(i.sin_approx)
    sinf                                     0x0800a5b5   Thumb Code   338  sinf.o(i.sinf)
    soft_i2c_buffer_read                     0x0800a73d   Thumb Code   114  i2c_soft.o(i.soft_i2c_buffer_read)
    soft_i2c_init                            0x0800a7c1   Thumb Code    18  i2c_soft.o(i.soft_i2c_init)
    soft_i2c_read                            0x0800a7d9   Thumb Code   114  i2c_soft.o(i.soft_i2c_read)
    soft_i2c_read_reg                        0x0800a851   Thumb Code    58  i2c_soft.o(i.soft_i2c_read_reg)
    soft_i2c_start                           0x0800a88d   Thumb Code    44  i2c_soft.o(i.soft_i2c_start)
    soft_i2c_stop                            0x0800a8bd   Thumb Code    34  i2c_soft.o(i.soft_i2c_stop)
    soft_i2c_write                           0x0800a8e5   Thumb Code   110  i2c_soft.o(i.soft_i2c_write)
    soft_i2c_write_reg                       0x0800a959   Thumb Code    44  i2c_soft.o(i.soft_i2c_write_reg)
    spl06Detect                              0x0800a985   Thumb Code    76  spl06.o(i.spl06Detect)
    spl06_calculate                          0x0800aa01   Thumb Code    62  spl06.o(i.spl06_calculate)
    sqrtf                                    0x0800ad73   Thumb Code    44  sqrtf.o(i.sqrtf)
    ticks_callback                           0x0800ada1   Thumb Code   132  ticks.o(i.ticks_callback)
    ticks_init                               0x0800ae55   Thumb Code    14  ticks.o(i.ticks_init)
    ticks_stop                               0x0800ae69   Thumb Code    14  ticks.o(i.ticks_stop)
    to_euler                                 0x0800ae79   Thumb Code   284  imu.o(i.to_euler)
    uart_send_data                           0x0800afa5   Thumb Code    16  uart.o(i.uart_send_data)
    Region$$Table$$Base                      0x0800b118   Number         0  anon$$obj.o(Region$$Table)
    Region$$Table$$Limit                     0x0800b138   Number         0  anon$$obj.o(Region$$Table)
    ledCtrlTimer                             0x20000000   Data           1  led.o(.data)
    i2cTestTimer                             0x20000007   Data           1  i2c_soft.o(.data)
    f_IAP_flashing                           0x20000008   Data           1  iap.o(.data)
    f_final_frame                            0x20000009   Data           1  iap.o(.data)
    f_receive_app_done                       0x2000000a   Data           1  iap.o(.data)
    slot_timer                               0x2000000c   Data           2  iap.o(.data)
    jump2app                                 0x20000018   Data           4  iap.o(.data)
    pages_number                             0x2000001c   Data           4  iap.o(.data)
    ready_write_addr                         0x20000020   Data           4  iap.o(.data)
    printTestTimer                           0x20000024   Data           1  main.o(.data)
    powerupTimer                             0x20000025   Data           1  main.o(.data)
    mpu6050TestTimer                         0x20000048   Data           1  mpu6050.o(.data)
    accRaw                                   0x2000004a   Data           6  mpu6050.o(.data)
    gyroRaw                                  0x20000050   Data           6  mpu6050.o(.data)
    temperuteRaw                             0x20000056   Data           2  mpu6050.o(.data)
    acc_1G                                   0x2000005c   Data           2  accgyro.o(.data)
    gyroScale                                0x20000060   Data           4  accgyro.o(.data)
    q0                                       0x20000070   Data           4  imu.o(.data)
    q1                                       0x20000074   Data           4  imu.o(.data)
    q2                                       0x20000078   Data           4  imu.o(.data)
    q3                                       0x2000007c   Data           4  imu.o(.data)
    angle                                    0x20000080   Data           6  imu.o(.data)
    baroUpdateTimer                          0x200000a4   Data           1  barometer.o(.data)
    baroPressure                             0x200000a8   Data           4  barometer.o(.data)
    baroTemperature                          0x200000ac   Data           4  barometer.o(.data)
    opflowUartIndex                          0x200000c0   Data           1  opflow.o(.data)
    opticalflowCtrlTimer                     0x200000c2   Data           2  opflow.o(.data)
    opticalflowMonitorTimer                  0x200000c4   Data           2  opflow.o(.data)
    OpticalflowAltitude                      0x200000c8   Data           4  opflow.o(.data)
    AngleDegreeForOF                         0x200000cc   Data           8  opflow.o(.data)
    HeadforOpticalflow                       0x200000d4   Data           4  opflow.o(.data)
    pixel_flow_distance                      0x200000d8   Data           8  opflow.o(.data)
    pixelVel                                 0x200000e0   Data           8  opflow.o(.data)
    optGyro                                  0x200000e8   Data           8  opflow.o(.data)
    optGyroLast                              0x200000f0   Data           8  opflow.o(.data)
    flagVelCtrl                              0x200000f8   Data           2  opflow.o(.data)
    opticalFlowEnbAfterStick                 0x200000fa   Data           2  opflow.o(.data)
    opticalflowPID                           0x200000fc   Data           8  opflow.o(.data)
    tiltAngle                                0x20000140   Data           2  altitude.o(.data)
    calibratingB                             0x20000142   Data           2  altitude.o(.data)
    baroGroundAltitude                       0x20000144   Data           4  altitude.o(.data)
    BaroAlt                                  0x20000148   Data           4  altitude.o(.data)
    lastBaroAlt                              0x2000014c   Data           4  altitude.o(.data)
    baroVel                                  0x20000150   Data           4  altitude.o(.data)
    accSumZCount                             0x20000154   Data           2  altitude.o(.data)
    accSumZTimer                             0x20000158   Data           4  altitude.o(.data)
    accZGlobal                               0x2000015c   Data           2  altitude.o(.data)
    vel                                      0x20000160   Data           4  altitude.o(.data)
    accAlt                                   0x20000164   Data           4  altitude.o(.data)
    EstAlt                                   0x20000168   Data           4  altitude.o(.data)
    AltHold                                  0x2000016c   Data           4  altitude.o(.data)
    BaroPID                                  0x20000170   Data           4  altitude.o(.data)
    altitudeCtrlTimer                        0x20000174   Data           1  altitude.o(.data)
    setVel                                   0x20000176   Data           2  altitude.o(.data)
    Pf_Pos                                   0x20000178   Data           4  altitude.o(.data)
    Pf_Vel                                   0x2000017c   Data           4  altitude.o(.data)
    If_Vel                                   0x20000180   Data           4  altitude.o(.data)
    Df_Vel                                   0x20000184   Data           4  altitude.o(.data)
    DispAccAvg                               0x20000188   Data           4  altitude.o(.data)
    DispError                                0x2000018c   Data           4  altitude.o(.data)
    DispVolicityPID                          0x20000190   Data           4  altitude.o(.data)
    DispVel                                  0x20000194   Data           4  altitude.o(.data)
    DispBaroVel                              0x20000198   Data           4  altitude.o(.data)
    DispSetV                                 0x2000019c   Data           4  altitude.o(.data)
    DispMatrix0                              0x200001a0   Data           4  altitude.o(.data)
    DispMatrix1                              0x200001a4   Data           4  altitude.o(.data)
    DispMatrix2                              0x200001a8   Data           4  altitude.o(.data)
    DispAcc0                                 0x200001ac   Data           4  altitude.o(.data)
    DispAcc1                                 0x200001b0   Data           4  altitude.o(.data)
    DispAcc2                                 0x200001b4   Data           4  altitude.o(.data)
    DispAngleRoll                            0x200001b8   Data           4  altitude.o(.data)
    DispAnglePitch                           0x200001bc   Data           4  altitude.o(.data)
    DispMidGyroRoll                          0x200001c0   Data           4  altitude.o(.data)
    DispMidGyroPitch                         0x200001c4   Data           4  altitude.o(.data)
    DispMidAccRoll                           0x200001c8   Data           4  altitude.o(.data)
    DispMidAccPitch                          0x200001cc   Data           4  altitude.o(.data)
    integralBaroThrottle                     0x200001d0   Data           4  altitude.o(.data)
    calibrationEnbTimer                      0x200001f4   Data           1  decode.o(.data)
    rcCommand                                0x200001f6   Data           8  decode.o(.data)
    rcCommandTrim                            0x200001fe   Data           6  decode.o(.data)
    setVelocity                              0x20000204   Data           2  decode.o(.data)
    fc                                       0x20000208   Data           2  fc.o(.data)
    motorPWMValue                            0x2000020c   Data           8  motor.o(.data)
    __stdout                                 0x20000214   Data           4  stdout.o(.data)
    debugUART                                0x2000021c   Data          28  uart.o(.bss)
    opflowUART                               0x200003c4   Data          28  uart.o(.bss)
    cfgTemp                                  0x20000460   Data          16  iap.o(.bss)
    RX_buf                                   0x20000470   Data         256  iap.o(.bss)
    flash_buf                                0x20000570   Data        2048  iap.o(.bss)
    hwDebugUart                              0x20000d70   Data          12  hw_uart.o(.bss)
    hwOpflowUart                             0x20000d7c   Data          12  hw_uart.o(.bss)
    accgyro                                  0x20000d88   Data          96  accgyro.o(.bss)
    accSmooth                                0x20000eb4   Data          12  imu.o(.bss)
    baro                                     0x20000ec0   Data          24  barometer.o(.bss)
    spl06_cal                                0x20000ed8   Data          24  spl06.o(.bss)
    accSumZ                                  0x20000ef0   Data          12  altitude.o(.bss)
    velGlobal                                0x20000efc   Data          12  altitude.o(.bss)
    distanceGlobal                           0x20000f08   Data          12  altitude.o(.bss)
    fcCmd                                    0x20000f44   Data          10  decode.o(.bss)
    pidconf                                  0x20000f50   Data          68  pid.o(.bss)
    __initial_sp                             0x200013c8   Data           0  startup_stm32f10x_hd_vl.o(STACK)



==============================================================================

Memory Map of the image

  Image Entry point : 0x08004135

  Load Region LR_IROM1 (Base: 0x08004000, Size: 0x00007354, Max: 0x0000c000, ABSOLUTE, COMPRESSED[0x00007170])

    Execution Region ER_IROM1 (Exec base: 0x08004000, Load base: 0x08004000, Size: 0x00007138, Max: 0x0000c000, ABSOLUTE)

    Exec Addr    Load Addr    Size         Type   Attr      Idx    E Section Name        Object

    0x08004000   0x08004000   0x00000134   Data   RO         3765    RESET               startup_stm32f10x_hd_vl.o
    0x08004134   0x08004134   0x00000000   Code   RO         4799  * .ARM.Collect$$$$00000000  mc_w.l(entry.o)
    0x08004134   0x08004134   0x00000004   Code   RO         5112    .ARM.Collect$$$$00000001  mc_w.l(entry2.o)
    0x08004138   0x08004138   0x00000004   Code   RO         5115    .ARM.Collect$$$$00000004  mc_w.l(entry5.o)
    0x0800413c   0x0800413c   0x00000000   Code   RO         5117    .ARM.Collect$$$$00000008  mc_w.l(entry7b.o)
    0x0800413c   0x0800413c   0x00000000   Code   RO         5119    .ARM.Collect$$$$0000000A  mc_w.l(entry8b.o)
    0x0800413c   0x0800413c   0x00000008   Code   RO         5120    .ARM.Collect$$$$0000000B  mc_w.l(entry9a.o)
    0x08004144   0x08004144   0x00000000   Code   RO         5122    .ARM.Collect$$$$0000000D  mc_w.l(entry10a.o)
    0x08004144   0x08004144   0x00000000   Code   RO         5124    .ARM.Collect$$$$0000000F  mc_w.l(entry11a.o)
    0x08004144   0x08004144   0x00000004   Code   RO         5113    .ARM.Collect$$$$00002712  mc_w.l(entry2.o)
    0x08004148   0x08004148   0x00000024   Code   RO         3766    .text               startup_stm32f10x_hd_vl.o
    0x0800416c   0x0800416c   0x00000024   Code   RO         4804    .text               mc_w.l(memseta.o)
    0x08004190   0x08004190   0x000000b0   Code   RO         5069    .text               mf_w.l(fadd.o)
    0x08004240   0x08004240   0x00000064   Code   RO         5071    .text               mf_w.l(fmul.o)
    0x080042a4   0x080042a4   0x0000007c   Code   RO         5073    .text               mf_w.l(fdiv.o)
    0x08004320   0x08004320   0x000000e4   Code   RO         5075    .text               mf_w.l(dmul.o)
    0x08004404   0x08004404   0x00000012   Code   RO         5077    .text               mf_w.l(fflti.o)
    0x08004416   0x08004416   0x0000000a   Code   RO         5079    .text               mf_w.l(ffltui.o)
    0x08004420   0x08004420   0x0000001a   Code   RO         5081    .text               mf_w.l(dfltui.o)
    0x0800443a   0x0800443a   0x00000032   Code   RO         5083    .text               mf_w.l(ffixi.o)
    0x0800446c   0x0800446c   0x00000026   Code   RO         5085    .text               mf_w.l(f2d.o)
    0x08004492   0x08004492   0x00000038   Code   RO         5087    .text               mf_w.l(d2f.o)
    0x080044ca   0x080044ca   0x00000002   PAD
    0x080044cc   0x080044cc   0x00000014   Code   RO         5089    .text               mf_w.l(cfcmple.o)
    0x080044e0   0x080044e0   0x00000014   Code   RO         5091    .text               mf_w.l(cfrcmple.o)
    0x080044f4   0x080044f4   0x0000002c   Code   RO         5127    .text               mc_w.l(uidiv.o)
    0x08004520   0x08004520   0x00000062   Code   RO         5129    .text               mc_w.l(uldiv.o)
    0x08004582   0x08004582   0x00000000   Code   RO         5138    .text               mc_w.l(iusefp.o)
    0x08004582   0x08004582   0x0000006e   Code   RO         5139    .text               mf_w.l(fepilogue.o)
    0x080045f0   0x080045f0   0x00000018   Code   RO         5141    .text               mf_w.l(fscalb.o)
    0x08004608   0x08004608   0x0000005e   Code   RO         5143    .text               mf_w.l(fsqrt.o)
    0x08004666   0x08004666   0x0000003c   Code   RO         5145    .text               mf_w.l(frnd.o)
    0x080046a2   0x080046a2   0x000000ba   Code   RO         5147    .text               mf_w.l(depilogue.o)
    0x0800475c   0x0800475c   0x0000014e   Code   RO         5149    .text               mf_w.l(dadd.o)
    0x080048aa   0x080048aa   0x000000de   Code   RO         5151    .text               mf_w.l(ddiv.o)
    0x08004988   0x08004988   0x00000030   Code   RO         5153    .text               mf_w.l(dfixul.o)
    0x080049b8   0x080049b8   0x0000004c   Code   RO         5155    .text               mf_w.l(ffixir.o)
    0x08004a04   0x08004a04   0x00000030   Code   RO         5157    .text               mf_w.l(cdrcmple.o)
    0x08004a34   0x08004a34   0x00000004   Code   RO         5159    .text               mf_w.l(fpstat.o)
    0x08004a38   0x08004a38   0x00000024   Code   RO         5161    .text               mc_w.l(init.o)
    0x08004a5c   0x08004a5c   0x0000001e   Code   RO         5163    .text               mc_w.l(llshl.o)
    0x08004a7a   0x08004a7a   0x00000020   Code   RO         5165    .text               mc_w.l(llushr.o)
    0x08004a9a   0x08004a9a   0x00000024   Code   RO         5167    .text               mc_w.l(llsshr.o)
    0x08004abe   0x08004abe   0x00000056   Code   RO         5177    .text               mc_w.l(__dczerorl2.o)
    0x08004b14   0x08004b14   0x0000000c   Code   RO         2740    i.FLASH_ClearFlag   stm32f10x_flash.o
    0x08004b20   0x08004b20   0x0000004c   Code   RO         2745    i.FLASH_ErasePage   stm32f10x_flash.o
    0x08004b6c   0x08004b6c   0x00000034   Code   RO         2746    i.FLASH_GetBank1Status  stm32f10x_flash.o
    0x08004ba0   0x08004ba0   0x00000014   Code   RO         2755    i.FLASH_Lock        stm32f10x_flash.o
    0x08004bb4   0x08004bb4   0x0000001c   Code   RO         2757    i.FLASH_PrefetchBufferCmd  stm32f10x_flash.o
    0x08004bd0   0x08004bd0   0x0000006c   Code   RO         2760    i.FLASH_ProgramWord  stm32f10x_flash.o
    0x08004c3c   0x08004c3c   0x00000006   Code   RO          419    i.FLASH_ReadWord    iap.o
    0x08004c42   0x08004c42   0x00000002   PAD
    0x08004c44   0x08004c44   0x00000018   Code   RO         2762    i.FLASH_SetLatency  stm32f10x_flash.o
    0x08004c5c   0x08004c5c   0x00000018   Code   RO         2763    i.FLASH_Unlock      stm32f10x_flash.o
    0x08004c74   0x08004c74   0x00000026   Code   RO         2767    i.FLASH_WaitForLastOperation  stm32f10x_flash.o
    0x08004c9a   0x08004c9a   0x00000116   Code   RO          905    i.GPIO_Init         stm32f10x_gpio.o
    0x08004db0   0x08004db0   0x00000090   Code   RO          907    i.GPIO_PinRemapConfig  stm32f10x_gpio.o
    0x08004e40   0x08004e40   0x00000078   Code   RO         3724    i.HSI_SetSysClock   system_stm32f10x.o
    0x08004eb8   0x08004eb8   0x00000070   Code   RO         1019    i.NVIC_Init         misc.o
    0x08004f28   0x08004f28   0x00000014   Code   RO         1020    i.NVIC_PriorityGroupConfig  misc.o
    0x08004f3c   0x08004f3c   0x00000020   Code   RO          632    i.RCC_APB1PeriphClockCmd  stm32f10x_rcc.o
    0x08004f5c   0x08004f5c   0x00000020   Code   RO          634    i.RCC_APB2PeriphClockCmd  stm32f10x_rcc.o
    0x08004f7c   0x08004f7c   0x0000008c   Code   RO         3725    i.RCC_Configuration  system_stm32f10x.o
    0x08005008   0x08005008   0x0000004c   Code   RO          641    i.RCC_DeInit        stm32f10x_rcc.o
    0x08005054   0x08005054   0x000000d4   Code   RO          642    i.RCC_GetClocksFreq  stm32f10x_rcc.o
    0x08005128   0x08005128   0x0000003c   Code   RO          643    i.RCC_GetFlagStatus  stm32f10x_rcc.o
    0x08005164   0x08005164   0x00000010   Code   RO          645    i.RCC_GetSYSCLKSource  stm32f10x_rcc.o
    0x08005174   0x08005174   0x00000018   Code   RO          646    i.RCC_HCLKConfig    stm32f10x_rcc.o
    0x0800518c   0x0800518c   0x0000000c   Code   RO          648    i.RCC_HSICmd        stm32f10x_rcc.o
    0x08005198   0x08005198   0x00000018   Code   RO          653    i.RCC_PCLK1Config   stm32f10x_rcc.o
    0x080051b0   0x080051b0   0x00000018   Code   RO          654    i.RCC_PCLK2Config   stm32f10x_rcc.o
    0x080051c8   0x080051c8   0x0000000c   Code   RO          655    i.RCC_PLLCmd        stm32f10x_rcc.o
    0x080051d4   0x080051d4   0x0000001c   Code   RO          656    i.RCC_PLLConfig     stm32f10x_rcc.o
    0x080051f0   0x080051f0   0x00000018   Code   RO          659    i.RCC_SYSCLKConfig  stm32f10x_rcc.o
    0x08005208   0x08005208   0x0000000a   Code   RO         3726    i.SetSysClock       system_stm32f10x.o
    0x08005212   0x08005212   0x00000002   PAD
    0x08005214   0x08005214   0x00000078   Code   RO         3728    i.SystemInit        system_stm32f10x.o
    0x0800528c   0x0800528c   0x00000018   Code   RO         3815    i.TIM2_IRQHandler   hw_timer.o
    0x080052a4   0x080052a4   0x00000018   Code   RO         3113    i.TIM_ARRPreloadConfig  stm32f10x_tim.o
    0x080052bc   0x080052bc   0x00000006   Code   RO         3120    i.TIM_ClearITPendingBit  stm32f10x_tim.o
    0x080052c2   0x080052c2   0x00000018   Code   RO         3125    i.TIM_Cmd           stm32f10x_tim.o
    0x080052da   0x080052da   0x00000006   Code   RO         3144    i.TIM_GetCounter    stm32f10x_tim.o
    0x080052e0   0x080052e0   0x00000012   Code   RO         3150    i.TIM_ITConfig      stm32f10x_tim.o
    0x080052f2   0x080052f2   0x00000002   PAD
    0x080052f4   0x080052f4   0x00000098   Code   RO         3154    i.TIM_OC1Init       stm32f10x_tim.o
    0x0800538c   0x0800538c   0x00000012   Code   RO         3157    i.TIM_OC1PreloadConfig  stm32f10x_tim.o
    0x0800539e   0x0800539e   0x00000002   PAD
    0x080053a0   0x080053a0   0x000000a4   Code   RO         3159    i.TIM_OC2Init       stm32f10x_tim.o
    0x08005444   0x08005444   0x0000001a   Code   RO         3162    i.TIM_OC2PreloadConfig  stm32f10x_tim.o
    0x0800545e   0x0800545e   0x00000002   PAD
    0x08005460   0x08005460   0x000000a0   Code   RO         3164    i.TIM_OC3Init       stm32f10x_tim.o
    0x08005500   0x08005500   0x00000012   Code   RO         3167    i.TIM_OC3PreloadConfig  stm32f10x_tim.o
    0x08005512   0x08005512   0x00000002   PAD
    0x08005514   0x08005514   0x0000007c   Code   RO         3169    i.TIM_OC4Init       stm32f10x_tim.o
    0x08005590   0x08005590   0x0000001a   Code   RO         3171    i.TIM_OC4PreloadConfig  stm32f10x_tim.o
    0x080055aa   0x080055aa   0x00000004   Code   RO         3186    i.TIM_SetCompare1   stm32f10x_tim.o
    0x080055ae   0x080055ae   0x00000004   Code   RO         3187    i.TIM_SetCompare2   stm32f10x_tim.o
    0x080055b2   0x080055b2   0x00000004   Code   RO         3188    i.TIM_SetCompare3   stm32f10x_tim.o
    0x080055b6   0x080055b6   0x00000006   Code   RO         3189    i.TIM_SetCompare4   stm32f10x_tim.o
    0x080055bc   0x080055bc   0x000000a4   Code   RO         3196    i.TIM_TimeBaseInit  stm32f10x_tim.o
    0x08005660   0x08005660   0x000000c8   Code   RO         3854    i.USART1_IRQHandler  hw_uart.o
    0x08005728   0x08005728   0x000000b4   Code   RO         3855    i.USART3_IRQHandler  hw_uart.o
    0x080057dc   0x080057dc   0x0000001e   Code   RO         1386    i.USART_ClearITPendingBit  stm32f10x_usart.o
    0x080057fa   0x080057fa   0x00000018   Code   RO         1389    i.USART_Cmd         stm32f10x_usart.o
    0x08005812   0x08005812   0x00000054   Code   RO         1393    i.USART_GetITStatus  stm32f10x_usart.o
    0x08005866   0x08005866   0x0000004a   Code   RO         1395    i.USART_ITConfig    stm32f10x_usart.o
    0x080058b0   0x080058b0   0x000000d8   Code   RO         1396    i.USART_Init        stm32f10x_usart.o
    0x08005988   0x08005988   0x0000000a   Code   RO         1403    i.USART_ReceiveData  stm32f10x_usart.o
    0x08005992   0x08005992   0x00000008   Code   RO         1406    i.USART_SendData    stm32f10x_usart.o
    0x0800599a   0x0800599a   0x00000002   PAD
    0x0800599c   0x0800599c   0x00000020   Code   RO         5041    i.__0printf         mc_w.l(printfa.o)
    0x080059bc   0x080059bc   0x00000026   Code   RO         5093    i.__ARM_fpclassifyf  m_ws.l(fpclassifyf.o)
    0x080059e2   0x080059e2   0x0000000a   Code   RO         5095    i.__mathlib_flt_divzero  m_ws.l(funder.o)
    0x080059ec   0x080059ec   0x00000006   Code   RO         5096    i.__mathlib_flt_infnan  m_ws.l(funder.o)
    0x080059f2   0x080059f2   0x00000004   Code   RO         5097    i.__mathlib_flt_infnan2  m_ws.l(funder.o)
    0x080059f6   0x080059f6   0x00000008   Code   RO         5098    i.__mathlib_flt_invalid  m_ws.l(funder.o)
    0x080059fe   0x080059fe   0x0000000a   Code   RO         5099    i.__mathlib_flt_overflow  m_ws.l(funder.o)
    0x08005a08   0x08005a08   0x0000000a   Code   RO         5101    i.__mathlib_flt_underflow  m_ws.l(funder.o)
    0x08005a12   0x08005a12   0x00000002   PAD
    0x08005a14   0x08005a14   0x00000168   Code   RO         5109    i.__mathlib_rredf2  m_ws.l(rredf.o)
    0x08005b7c   0x08005b7c   0x0000000e   Code   RO         5171    i.__scatterload_copy  mc_w.l(handlers.o)
    0x08005b8a   0x08005b8a   0x00000002   Code   RO         5172    i.__scatterload_null  mc_w.l(handlers.o)
    0x08005b8c   0x08005b8c   0x0000000e   Code   RO         5173    i.__scatterload_zeroinit  mc_w.l(handlers.o)
    0x08005b9a   0x08005b9a   0x00000002   PAD
    0x08005b9c   0x08005b9c   0x0000000c   Code   RO         5133    i.__set_errno       mc_w.l(errno.o)
    0x08005ba8   0x08005ba8   0x00000184   Code   RO         5048    i._fp_digits        mc_w.l(printfa.o)
    0x08005d2c   0x08005d2c   0x000006dc   Code   RO         5049    i._printf_core      mc_w.l(printfa.o)
    0x08006408   0x08006408   0x00000024   Code   RO         5050    i._printf_post_padding  mc_w.l(printfa.o)
    0x0800642c   0x0800642c   0x0000002e   Code   RO         5051    i._printf_pre_padding  mc_w.l(printfa.o)
    0x0800645a   0x0800645a   0x00000002   PAD
    0x0800645c   0x0800645c   0x00000114   Code   RO         4150    i.acc_calbration    accgyro.o
    0x08006570   0x08006570   0x000000d4   Code   RO         4151    i.accgyro_init      accgyro.o
    0x08006644   0x08006644   0x000000f8   Code   RO         4153    i.accgyro_update    accgyro.o
    0x0800673c   0x0800673c   0x00000094   Code   RO         3966    i.acos_approx       mlib.o
    0x080067d0   0x080067d0   0x0000028c   Code   RO         4521    i.altitude_baro_update  altitude.o
    0x08006a5c   0x08006a5c   0x00000020   Code   RO         4522    i.altitude_ctrl     altitude.o
    0x08006a7c   0x08006a7c   0x0000021c   Code   RO         4570    i.annexCode         decode.o
    0x08006c98   0x08006c98   0x00000032   Code   RO          421    i.app_flag_write    iap.o
    0x08006cca   0x08006cca   0x00000002   PAD
    0x08006ccc   0x08006ccc   0x00000044   Code   RO         4523    i.applyBarometerMedianFilter  altitude.o
    0x08006d10   0x08006d10   0x00000022   Code   RO         3967    i.applyDeadband     mlib.o
    0x08006d32   0x08006d32   0x0000007c   Code   RO         4314    i.apply_sensor_alignment  alignment.o
    0x08006dae   0x08006dae   0x00000002   PAD
    0x08006db0   0x08006db0   0x00000140   Code   RO         3968    i.atan2_approx      mlib.o
    0x08006ef0   0x08006ef0   0x0000025c   Code   RO         4754    i.atan2f            m_ws.l(atan2f.o)
    0x0800714c   0x0800714c   0x0000002c   Code   RO         4329    i.baro_init         barometer.o
    0x08007178   0x08007178   0x000000ac   Code   RO         4331    i.baro_update       barometer.o
    0x08007224   0x08007224   0x00000060   Code   RO         3911    i.biquadFilterApply  filter.o
    0x08007284   0x08007284   0x0000014c   Code   RO         3912    i.biquadFilterInit  filter.o
    0x080073d0   0x080073d0   0x00000034   Code   RO         3913    i.biquadFilterInitLPF  filter.o
    0x08007404   0x08007404   0x00000024   Code   RO          423    i.cfg_init_temp     iap.o
    0x08007428   0x08007428   0x00000068   Code   RO          424    i.cfg_save_temp     iap.o
    0x08007490   0x08007490   0x0000000e   Code   RO         3969    i.constrain         mlib.o
    0x0800749e   0x0800749e   0x00000024   Code   RO         3970    i.constrain_float   mlib.o
    0x080074c2   0x080074c2   0x00000002   PAD
    0x080074c4   0x080074c4   0x0000017c   Code   RO         4762    i.cosf              m_ws.l(cosf.o)
    0x08007640   0x08007640   0x0000004c   Code   RO          314    i.debug_uart_init   uart.o
    0x0800768c   0x0800768c   0x00000044   Code   RO         4571    i.decode            decode.o
    0x080076d0   0x080076d0   0x00000018   Code   RO          146    i.delay_ms          ticks.o
    0x080076e8   0x080076e8   0x00000028   Code   RO         4367    i.deviceDetect      spl06.o
    0x08007710   0x08007710   0x0000005c   Code   RO         4628    i.flight_ctrl       fc.o
    0x0800776c   0x0800776c   0x00000014   Code   RO          315    i.fputc             uart.o
    0x08007780   0x08007780   0x00000130   Code   RO         4211    i.from_euler        imu.o
    0x080078b0   0x080078b0   0x00000558   Code   RO         4524    i.getEstimatedAltitude  altitude.o
    0x08007e08   0x08007e08   0x000000ec   Code   RO         4154    i.gyro_calbration   accgyro.o
    0x08007ef4   0x08007ef4   0x000000b0   Code   RO         3856    i.hw_debug_uart_init  hw_uart.o
    0x08007fa4   0x08007fa4   0x00000074   Code   RO         3800    i.hw_led_initialize  hw_led.o
    0x08008018   0x08008018   0x000000b0   Code   RO         3857    i.hw_opticalflow_uart_init  hw_uart.o
    0x080080c8   0x080080c8   0x00000040   Code   RO         3770    i.hw_soft_i2c_init  hw_i2c_soft.o
    0x08008108   0x08008108   0x0000001c   Code   RO         3771    i.hw_soft_i2c_sda_input  hw_i2c_soft.o
    0x08008124   0x08008124   0x0000001c   Code   RO         3772    i.hw_soft_i2c_sda_output  hw_i2c_soft.o
    0x08008140   0x08008140   0x000000f8   Code   RO         3816    i.hw_tim3_init      hw_timer.o
    0x08008238   0x08008238   0x00000038   Code   RO         3817    i.hw_tim4_init      hw_timer.o
    0x08008270   0x08008270   0x00000068   Code   RO         3818    i.hw_tim6_init      hw_timer.o
    0x080082d8   0x080082d8   0x000000b4   Code   RO          425    i.iap_for_app       iap.o
    0x0800838c   0x0800838c   0x00000034   Code   RO          426    i.iap_for_app_init  iap.o
    0x080083c0   0x080083c0   0x000000ec   Code   RO         4212    i.imuCalculateAcceleration  imu.o
    0x080084ac   0x080084ac   0x0000012c   Code   RO         4213    i.imuCalculateEstimatedAttitude  imu.o
    0x080085d8   0x080085d8   0x00000178   Code   RO         4214    i.imuComputeRotationMatrix  imu.o
    0x08008750   0x08008750   0x00000018   Code   RO         4215    i.imuGetPGainScaleFactor  imu.o
    0x08008768   0x08008768   0x00000044   Code   RO         4216    i.imuIsAccelerometerHealthy  imu.o
    0x080087ac   0x080087ac   0x0000044c   Code   RO         4217    i.imuMahonyAHRSupdate  imu.o
    0x08008bf8   0x08008bf8   0x0000009e   Code   RO         4218    i.imuTransformVectorBodyToEarth  imu.o
    0x08008c96   0x08008c96   0x00000002   PAD
    0x08008c98   0x08008c98   0x000000c4   Code   RO         4219    i.imuUpdateEulerAngles  imu.o
    0x08008d5c   0x08008d5c   0x00000024   Code   RO         4220    i.imuUseFastGains   imu.o
    0x08008d80   0x08008d80   0x00000054   Code   RO         4221    i.imu_init          imu.o
    0x08008dd4   0x08008dd4   0x0000004c   Code   RO         3972    i.invSqrt           mlib.o
    0x08008e20   0x08008e20   0x00000098   Code   RO            1    i.led_ctrl          led.o
    0x08008eb8   0x08008eb8   0x0000000e   Code   RO            2    i.led_init          led.o
    0x08008ec6   0x08008ec6   0x00000002   PAD
    0x08008ec8   0x08008ec8   0x0000003c   Code   RO            3    i.led_off           led.o
    0x08008f04   0x08008f04   0x0000003c   Code   RO            4    i.led_on            led.o
    0x08008f40   0x08008f40   0x00000050   Code   RO            5    i.led_reverse       led.o
    0x08008f90   0x08008f90   0x00000032   Code   RO         4795    i.lrintf            m_ws.l(lrintf.o)
    0x08008fc2   0x08008fc2   0x00000002   PAD
    0x08008fc4   0x08008fc4   0x000001e8   Code   RO          537    i.main              main.o
    0x080091ac   0x080091ac   0x0000000e   Code   RO         3973    i.max               mlib.o
    0x080091ba   0x080091ba   0x00000002   PAD
    0x080091bc   0x080091bc   0x00000014   Code   RO          147    i.micros16          ticks.o
    0x080091d0   0x080091d0   0x00000018   Code   RO         4700    i.motor_init        motor.o
    0x080091e8   0x080091e8   0x00000034   Code   RO         4701    i.motor_pwm_output  motor.o
    0x0800921c   0x0800921c   0x000000f4   Code   RO         4094    i.mpu6050FindRevision  mpu6050.o
    0x08009310   0x08009310   0x00000086   Code   RO         4095    i.mpu6050_init      mpu6050.o
    0x08009396   0x08009396   0x00000002   PAD
    0x08009398   0x08009398   0x000000e0   Code   RO         4096    i.mpu6050_read      mpu6050.o
    0x08009478   0x08009478   0x0000012c   Code   RO         4052    i.msp               msp.o
    0x080095a4   0x080095a4   0x0000001c   Code   RO         4456    i.opflow_init       opflow.o
    0x080095c0   0x080095c0   0x00000048   Code   RO          317    i.opflow_uart_init  uart.o
    0x08009608   0x08009608   0x00000508   Code   RO         4667    i.pid               pid.o
    0x08009b10   0x08009b10   0x00000620   Code   RO         4770    i.powf              m_ws.l(powf.o)
    0x0800a130   0x0800a130   0x0000003c   Code   RO         3915    i.pt1FilterApply    filter.o
    0x0800a16c   0x0800a16c   0x00000030   Code   RO         3917    i.pt1FilterInit     filter.o
    0x0800a19c   0x0800a19c   0x000000f2   Code   RO         3975    i.quickMedianFilter5  mlib.o
    0x0800a28e   0x0800a28e   0x00000002   PAD
    0x0800a290   0x0800a290   0x00000140   Code   RO         4368    i.read_calibration_coefficients  spl06.o
    0x0800a3d0   0x0800a3d0   0x00000048   Code   RO          430    i.send_ack          iap.o
    0x0800a418   0x0800a418   0x00000020   Code   RO          319    i.serial_available  uart.o
    0x0800a438   0x0800a438   0x0000002c   Code   RO          321    i.serial_read_rx_fifo  uart.o
    0x0800a464   0x0800a464   0x0000001e   Code   RO          323    i.serial_write_buffer  uart.o
    0x0800a482   0x0800a482   0x00000002   PAD
    0x0800a484   0x0800a484   0x00000030   Code   RO          324    i.serial_write_tx_fifo  uart.o
    0x0800a4b4   0x0800a4b4   0x00000100   Code   RO         3977    i.sin_approx        mlib.o
    0x0800a5b4   0x0800a5b4   0x00000188   Code   RO         4780    i.sinf              m_ws.l(sinf.o)
    0x0800a73c   0x0800a73c   0x00000072   Code   RO          230    i.soft_i2c_buffer_read  i2c_soft.o
    0x0800a7ae   0x0800a7ae   0x00000010   Code   RO          231    i.soft_i2c_delay    i2c_soft.o
    0x0800a7be   0x0800a7be   0x00000002   PAD
    0x0800a7c0   0x0800a7c0   0x00000018   Code   RO          232    i.soft_i2c_init     i2c_soft.o
    0x0800a7d8   0x0800a7d8   0x00000078   Code   RO          233    i.soft_i2c_read     i2c_soft.o
    0x0800a850   0x0800a850   0x0000003a   Code   RO          234    i.soft_i2c_read_reg  i2c_soft.o
    0x0800a88a   0x0800a88a   0x00000002   PAD
    0x0800a88c   0x0800a88c   0x00000030   Code   RO          235    i.soft_i2c_start    i2c_soft.o
    0x0800a8bc   0x0800a8bc   0x00000028   Code   RO          236    i.soft_i2c_stop     i2c_soft.o
    0x0800a8e4   0x0800a8e4   0x00000074   Code   RO          237    i.soft_i2c_write    i2c_soft.o
    0x0800a958   0x0800a958   0x0000002c   Code   RO          238    i.soft_i2c_write_reg  i2c_soft.o
    0x0800a984   0x0800a984   0x0000007c   Code   RO         4369    i.spl06Detect       spl06.o
    0x0800aa00   0x0800aa00   0x0000004c   Code   RO         4370    i.spl06_calculate   spl06.o
    0x0800aa4c   0x0800aa4c   0x00000100   Code   RO         4371    i.spl06_compensate_pressure  spl06.o
    0x0800ab4c   0x0800ab4c   0x00000060   Code   RO         4372    i.spl06_compensate_temperature  spl06.o
    0x0800abac   0x0800abac   0x0000004c   Code   RO         4373    i.spl06_configure_measurements  spl06.o
    0x0800abf8   0x0800abf8   0x0000005e   Code   RO         4374    i.spl06_raw_value_scale_factor  spl06.o
    0x0800ac56   0x0800ac56   0x00000002   PAD
    0x0800ac58   0x0800ac58   0x00000050   Code   RO         4375    i.spl06_read_pressure  spl06.o
    0x0800aca8   0x0800aca8   0x00000050   Code   RO         4376    i.spl06_read_temperature  spl06.o
    0x0800acf8   0x0800acf8   0x0000004e   Code   RO         4377    i.spl06_samples_to_cfg_reg_value  spl06.o
    0x0800ad46   0x0800ad46   0x00000016   Code   RO         4378    i.spl06_start_pressure_measurement  spl06.o
    0x0800ad5c   0x0800ad5c   0x00000016   Code   RO         4379    i.spl06_start_temperature_measurement  spl06.o
    0x0800ad72   0x0800ad72   0x0000002c   Code   RO         4788    i.sqrtf             m_ws.l(sqrtf.o)
    0x0800ad9e   0x0800ad9e   0x00000002   PAD
    0x0800ada0   0x0800ada0   0x000000b4   Code   RO          148    i.ticks_callback    ticks.o
    0x0800ae54   0x0800ae54   0x00000014   Code   RO          149    i.ticks_init        ticks.o
    0x0800ae68   0x0800ae68   0x0000000e   Code   RO          150    i.ticks_stop        ticks.o
    0x0800ae76   0x0800ae76   0x00000002   PAD
    0x0800ae78   0x0800ae78   0x0000012c   Code   RO         4223    i.to_euler          imu.o
    0x0800afa4   0x0800afa4   0x00000014   Code   RO          325    i.uart_send_data    uart.o
    0x0800afb8   0x0800afb8   0x00000140   Data   RO         4771    .constdata          m_ws.l(powf.o)
    0x0800b0f8   0x0800b0f8   0x00000020   Data   RO         5110    .constdata          m_ws.l(rredf.o)
    0x0800b118   0x0800b118   0x00000020   Data   RO         5169    Region$$Table       anon$$obj.o


    Execution Region RW_IRAM1 (Exec base: 0x20000000, Load base: 0x0800b138, Size: 0x000013c8, Max: 0x00005000, ABSOLUTE, COMPRESSED[0x00000038])

    Exec Addr    Load Addr    Size         Type   Attr      Idx    E Section Name        Object

    0x20000000   COMPRESSED   0x00000003   Data   RW            7    .data               led.o
    0x20000003   COMPRESSED   0x00000001   PAD
    0x20000004   COMPRESSED   0x00000003   Data   RW          151    .data               ticks.o
    0x20000007   COMPRESSED   0x00000001   Data   RW          239    .data               i2c_soft.o
    0x20000008   COMPRESSED   0x0000001c   Data   RW          432    .data               iap.o
    0x20000024   COMPRESSED   0x00000002   Data   RW          538    .data               main.o
    0x20000026   COMPRESSED   0x00000014   Data   RW          662    .data               stm32f10x_rcc.o
    0x2000003a   COMPRESSED   0x00000002   PAD
    0x2000003c   COMPRESSED   0x00000004   Data   RW         3819    .data               hw_timer.o
    0x20000040   COMPRESSED   0x00000008   Data   RW         4053    .data               msp.o
    0x20000048   COMPRESSED   0x00000011   Data   RW         4098    .data               mpu6050.o
    0x20000059   COMPRESSED   0x00000003   PAD
    0x2000005c   COMPRESSED   0x00000012   Data   RW         4156    .data               accgyro.o
    0x2000006e   COMPRESSED   0x00000002   PAD
    0x20000070   COMPRESSED   0x00000034   Data   RW         4225    .data               imu.o
    0x200000a4   COMPRESSED   0x00000014   Data   RW         4333    .data               barometer.o
    0x200000b8   COMPRESSED   0x00000008   Data   RW         4381    .data               spl06.o
    0x200000c0   COMPRESSED   0x00000080   Data   RW         4460    .data               opflow.o
    0x20000140   COMPRESSED   0x000000b4   Data   RW         4526    .data               altitude.o
    0x200001f4   COMPRESSED   0x00000013   Data   RW         4574    .data               decode.o
    0x20000207   COMPRESSED   0x00000001   PAD
    0x20000208   COMPRESSED   0x00000004   Data   RW         4629    .data               fc.o
    0x2000020c   COMPRESSED   0x00000008   Data   RW         4704    .data               motor.o
    0x20000214   COMPRESSED   0x00000004   Data   RW         5126    .data               mc_w.l(stdout.o)
    0x20000218   COMPRESSED   0x00000004   Data   RW         5134    .data               mc_w.l(errno.o)
    0x2000021c        -       0x00000244   Zero   RW          327    .bss                uart.o
    0x20000460        -       0x00000910   Zero   RW          431    .bss                iap.o
    0x20000d70        -       0x00000018   Zero   RW         3858    .bss                hw_uart.o
    0x20000d88        -       0x00000108   Zero   RW         4155    .bss                accgyro.o
    0x20000e90        -       0x00000030   Zero   RW         4224    .bss                imu.o
    0x20000ec0        -       0x00000018   Zero   RW         4332    .bss                barometer.o
    0x20000ed8        -       0x00000018   Zero   RW         4380    .bss                spl06.o
    0x20000ef0        -       0x00000054   Zero   RW         4525    .bss                altitude.o
    0x20000f44        -       0x0000000a   Zero   RW         4573    .bss                decode.o
    0x20000f4e   COMPRESSED   0x00000002   PAD
    0x20000f50        -       0x00000074   Zero   RW         4668    .bss                pid.o
    0x20000fc4   COMPRESSED   0x00000004   PAD
    0x20000fc8        -       0x00000400   Zero   RW         3763    STACK               startup_stm32f10x_hd_vl.o


==============================================================================

Image component sizes


      Code (inc. data)   RO Data    RW Data    ZI Data      Debug   Object Name

       972        112          0         18        264       6013   accgyro.o
       124         10          0          0          0       1721   alignment.o
      2120        304          0        180         84       6563   altitude.o
       216         42          0         20         24       3422   barometer.o
       608         42          0         19         10       2617   decode.o
        92         16          0          4          0       1411   fc.o
       588         14          0          0          0       5083   filter.o
       120         12          0          0          0       1532   hw_i2c_soft.o
       116          6          0          0          0        572   hw_led.o
       432         30          0          4          0       3015   hw_timer.o
       732         40          0          0         24       5291   hw_uart.o
       580         28          0          1          0       6269   i2c_soft.o
       500         94          0         28       2320      21194   iap.o
      3182        180          0         52         48      10905   imu.o
       366         22          0          3          0     247471   led.o
       488        122          0          2          0        917   main.o
       132         22          0          0          0       3747   misc.o
      1140         98          0          0          0       7257   mlib.o
        76         12          0          8          0       1756   motor.o
       602         78          0         17          0       3077   mpu6050.o
       300         22          0          8          0       1078   msp.o
        28          8          0        128          0       4416   opflow.o
      1288        104          0          0        116       3096   pid.o
      1364         88          0          8         24       9728   spl06.o
        36          8        308          0       1024        936   startup_stm32f10x_hd_vl.o
       382         50          0          0          0      13825   stm32f10x_flash.o
       422          6          0          0          0      20566   stm32f10x_gpio.o
       576         92          0         20          0      19899   stm32f10x_rcc.o
       948         92          0          0          0      33296   stm32f10x_tim.o
       446          6          0          0          0      13109   stm32f10x_usart.o
       390         34          0          0          0       2573   system_stm32f10x.o
       258         66          0          3          0       2697   ticks.o
       342         52          0          0        580       7415   uart.o

    ----------------------------------------------------------------------
     20006       1912        340        532       4524     472467   Object Totals
         0          0         32          0          0          0   (incl. Generated)
        40          0          0          9          6          0   (incl. Padding)

    ----------------------------------------------------------------------

      Code (inc. data)   RO Data    RW Data    ZI Data      Debug   Library Member Name

       604         76          0          0          0        116   atan2f.o
       380         52          0          0          0        124   cosf.o
        38          0          0          0          0         68   fpclassifyf.o
        48          0          0          0          0        408   funder.o
        50          0          0          0          0         80   lrintf.o
      1568         80        320          0          0        224   powf.o
       360         16         32          0          0         88   rredf.o
       392         54          0          0          0        124   sinf.o
        44          0          0          0          0         80   sqrtf.o
        86          0          0          0          0          0   __dczerorl2.o
         0          0          0          0          0          0   entry.o
         0          0          0          0          0          0   entry10a.o
         0          0          0          0          0          0   entry11a.o
         8          4          0          0          0          0   entry2.o
         4          0          0          0          0          0   entry5.o
         0          0          0          0          0          0   entry7b.o
         0          0          0          0          0          0   entry8b.o
         8          4          0          0          0          0   entry9a.o
        12          6          0          4          0         68   errno.o
        30          0          0          0          0          0   handlers.o
        36          8          0          0          0         68   init.o
         0          0          0          0          0          0   iusefp.o
        30          0          0          0          0         68   llshl.o
        36          0          0          0          0         68   llsshr.o
        32          0          0          0          0         68   llushr.o
        36          0          0          0          0        108   memseta.o
      2258         90          0          0          0        452   printfa.o
         0          0          0          4          0          0   stdout.o
        44          0          0          0          0         80   uidiv.o
        98          0          0          0          0         92   uldiv.o
        48          0          0          0          0         68   cdrcmple.o
        20          0          0          0          0         68   cfcmple.o
        20          0          0          0          0         68   cfrcmple.o
        56          0          0          0          0         88   d2f.o
       334          0          0          0          0        148   dadd.o
       222          0          0          0          0        100   ddiv.o
       186          0          0          0          0        176   depilogue.o
        48          0          0          0          0         68   dfixul.o
        26          0          0          0          0         76   dfltui.o
       228          0          0          0          0         96   dmul.o
        38          0          0          0          0         68   f2d.o
       176          0          0          0          0        140   fadd.o
       124          0          0          0          0         88   fdiv.o
       110          0          0          0          0        168   fepilogue.o
        50          0          0          0          0         68   ffixi.o
        76          0          0          0          0         76   ffixir.o
        18          0          0          0          0         68   fflti.o
        10          0          0          0          0         68   ffltui.o
       100          0          0          0          0         76   fmul.o
         4          0          0          0          0         68   fpstat.o
        60          0          0          0          0         76   frnd.o
        24          0          0          0          0         68   fscalb.o
        94          0          0          0          0         96   fsqrt.o

    ----------------------------------------------------------------------
      8286        390        352          8          0       4468   Library Totals
        12          0          0          0          0          0   (incl. Padding)

    ----------------------------------------------------------------------

      Code (inc. data)   RO Data    RW Data    ZI Data      Debug   Library Name

      3484        278        352          0          0       1312   m_ws.l
      2718        112          0          8          0       1072   mc_w.l
      2072          0          0          0          0       2084   mf_w.l

    ----------------------------------------------------------------------
      8286        390        352          8          0       4468   Library Totals

    ----------------------------------------------------------------------

==============================================================================


      Code (inc. data)   RO Data    RW Data    ZI Data      Debug   

     28292       2302        692        540       4524     466403   Grand Totals
     28292       2302        692         56       4524     466403   ELF Image Totals (compressed)
     28292       2302        692         56          0          0   ROM Totals

==============================================================================

    Total RO  Size (Code + RO Data)                28984 (  28.30kB)
    Total RW  Size (RW Data + ZI Data)              5064 (   4.95kB)
    Total ROM Size (Code + RO Data + RW Data)      29040 (  28.36kB)

==============================================================================

